; ModuleID = 'nn_cuda.cu'
source_filename = "nn_cuda.cu"
target datalayout = "e-m:e-i64:64-f80:128-n8:16:32:64-S128"
target triple = "x86_64-unknown-linux-gnu"

%struct._IO_FILE = type { i32, i8*, i8*, i8*, i8*, i8*, i8*, i8*, i8*, i8*, i8*, i8*, %struct._IO_marker*, %struct._IO_FILE*, i32, i32, i64, i16, i8, [1 x i8], i8*, i64, i8*, i8*, i8*, i8*, i64, i32, [20 x i8] }
%struct._IO_marker = type { %struct._IO_marker*, %struct._IO_FILE*, i32 }
%struct.timeval = type { i64, i64 }
%struct.timezone = type { i32, i32 }
%struct.latLong = type { float, float }
%"class.std::vector" = type { %"struct.std::_Vector_base" }
%"struct.std::_Vector_base" = type { %"struct.std::_Vector_base<record, std::allocator<record> >::_Vector_impl" }
%"struct.std::_Vector_base<record, std::allocator<record> >::_Vector_impl" = type { %struct.record*, %struct.record*, %struct.record* }
%struct.record = type { [53 x i8], float }
%"class.std::vector.0" = type { %"struct.std::_Vector_base.1" }
%"struct.std::_Vector_base.1" = type { %"struct.std::_Vector_base<latLong, std::allocator<latLong> >::_Vector_impl" }
%"struct.std::_Vector_base<latLong, std::allocator<latLong> >::_Vector_impl" = type { %struct.latLong*, %struct.latLong*, %struct.latLong* }
%struct.cudaDeviceProp = type { [256 x i8], i64, i64, i32, i32, i64, i32, [3 x i32], [3 x i32], i32, i64, i32, i32, i64, i64, i32, i32, i32, i32, i32, i32, i32, i32, i32, [2 x i32], [2 x i32], [3 x i32], [2 x i32], [3 x i32], [3 x i32], i32, [2 x i32], [3 x i32], [2 x i32], i32, [2 x i32], [3 x i32], [2 x i32], [3 x i32], i32, [2 x i32], i64, i32, i32, i32, i32, i32, i32, i32, i32, i32, i32, i32, i32, i32, i32, i32, i64, i32, i32, i32, i32 }
%struct.dim3 = type { i32, i32, i32 }
%struct.CUstream_st = type opaque
%"class.__gnu_cxx::__normal_iterator" = type { %struct.latLong* }
%"class.__gnu_cxx::__normal_iterator.5" = type { %struct.record* }

$_ZNSt6vectorI7latLongSaIS0_EE13_M_insert_auxEN9__gnu_cxx17__normal_iteratorIPS0_S2_EERKS0_ = comdat any

$_ZNSt6vectorI6recordSaIS0_EE13_M_insert_auxEN9__gnu_cxx17__normal_iteratorIPS0_S2_EERKS0_ = comdat any

@stderr = external local_unnamed_addr global %struct._IO_FILE*, align 8
@.str = private unnamed_addr constant [25 x i8] c"Error: Input too large.\0A\00", align 1
@.str.1 = private unnamed_addr constant [4 x i8] c"%f\0A\00", align 1
@.str.2 = private unnamed_addr constant [20 x i8] c"%s --> Distance=%f\0A\00", align 1
@.str.3 = private unnamed_addr constant [2 x i8] c"r\00", align 1
@.str.4 = private unnamed_addr constant [4 x i8] c"%s\0A\00", align 1
@.str.5 = private unnamed_addr constant [24 x i8] c"error reading filelist\0A\00", align 1
@str = private unnamed_addr constant [23 x i8] c"Nearest Neighbor Usage\00"
@str.25 = private unnamed_addr constant [89 x i8] c"nearestNeighbor [filename] -r [int] -lat [float] -lng [float] [-hqt] [-p [int] -d [int]]\00"
@str.26 = private unnamed_addr constant [9 x i8] c"example:\00"
@str.27 = private unnamed_addr constant [54 x i8] c"$ ./nearestNeighbor filelist.txt -r 5 -lat 30 -lng 90\00"
@str.28 = private unnamed_addr constant [58 x i8] c"filename     the filename that lists the data input files\00"
@str.29 = private unnamed_addr constant [59 x i8] c"-r [int]     the number of records to return (default: 10)\00"
@str.30 = private unnamed_addr constant [61 x i8] c"-lat [float] the latitude for nearest neighbors (default: 0)\00"
@str.31 = private unnamed_addr constant [62 x i8] c"-lng [float] the longitude for nearest neighbors (default: 0)\00"
@str.32 = private unnamed_addr constant [35 x i8] c"-h, --help   Display the help file\00"
@str.33 = private unnamed_addr constant [51 x i8] c"-q           Quiet mode. Suppress all text output.\00"
@str.34 = private unnamed_addr constant [39 x i8] c"-t           Print timing information.\00"
@str.35 = private unnamed_addr constant [72 x i8] c"-p [int]     Choose the platform (must choose both platform and device)\00"
@str.36 = private unnamed_addr constant [70 x i8] c"-d [int]     Choose the device (must choose both platform and device)\00"
@str.37 = private unnamed_addr constant [59 x i8] c"Notes: 1. The filename is required as the first parameter.\00"
@str.38 = private unnamed_addr constant [60 x i8] c"       2. If you declare either the device or the platform,\00"
@str.39 = private unnamed_addr constant [34 x i8] c"          you must declare both.\0A\00"
@str.40 = private unnamed_addr constant [19 x i8] c"error opening a db\00"

; Function Attrs: nounwind uwtable
define double @_Z8get_timev() local_unnamed_addr #0 !dbg !1315 {
entry:
  %time = alloca %struct.timeval, align 8
  %0 = bitcast %struct.timeval* %time to i8*, !dbg !1328
  call void @llvm.lifetime.start(i64 16, i8* nonnull %0) #11, !dbg !1328
  tail call void @llvm.dbg.value(metadata %struct.timeval* %time, i64 0, metadata !1319, metadata !1329), !dbg !1330
  %call = call i32 @gettimeofday(%struct.timeval* nonnull %time, %struct.timezone* null) #11, !dbg !1331
  %tobool = icmp eq i32 %call, 0, !dbg !1331
  br i1 %tobool, label %if.end, label %cleanup, !dbg !1333

if.end:                                           ; preds = %entry
  %tv_sec = getelementptr inbounds %struct.timeval, %struct.timeval* %time, i64 0, i32 0, !dbg !1334
  %1 = load i64, i64* %tv_sec, align 8, !dbg !1334, !tbaa !1335
  %conv = sitofp i64 %1 to double, !dbg !1340
  %tv_usec = getelementptr inbounds %struct.timeval, %struct.timeval* %time, i64 0, i32 1, !dbg !1341
  %2 = load i64, i64* %tv_usec, align 8, !dbg !1341, !tbaa !1342
  %conv1 = sitofp i64 %2 to double, !dbg !1343
  %mul = fmul double %conv1, 1.000000e-06, !dbg !1344
  %add = fadd double %mul, %conv, !dbg !1345
  br label %cleanup, !dbg !1346

cleanup:                                          ; preds = %entry, %if.end
  %retval.0 = phi double [ %add, %if.end ], [ 0.000000e+00, %entry ]
  call void @llvm.lifetime.end(i64 16, i8* nonnull %0) #11, !dbg !1347
  ret double %retval.0, !dbg !1347
}

; Function Attrs: argmemonly nounwind
declare void @llvm.lifetime.start(i64, i8* nocapture) #1

; Function Attrs: nounwind readnone
declare void @llvm.dbg.declare(metadata, metadata, metadata) #2

; Function Attrs: nounwind
declare i32 @gettimeofday(%struct.timeval* nocapture, %struct.timezone* nocapture) local_unnamed_addr #3

; Function Attrs: argmemonly nounwind
declare void @llvm.lifetime.end(i64, i8* nocapture) #1

; Function Attrs: uwtable
define void @_Z6euclidP7latLongPfiff(%struct.latLong* %d_locations, float* %d_distances, i32 %numRecords, float %lat, float %lng) #4 !dbg !1348 {
entry:
  %d_locations.addr = alloca %struct.latLong*, align 8
  %d_distances.addr = alloca float*, align 8
  %numRecords.addr = alloca i32, align 4
  %lat.addr = alloca float, align 4
  %lng.addr = alloca float, align 4
  tail call void @llvm.dbg.value(metadata %struct.latLong* %d_locations, i64 0, metadata !1354, metadata !1359), !dbg !1360
  store %struct.latLong* %d_locations, %struct.latLong** %d_locations.addr, align 8, !tbaa !1361
  tail call void @llvm.dbg.value(metadata float* %d_distances, i64 0, metadata !1355, metadata !1359), !dbg !1363
  store float* %d_distances, float** %d_distances.addr, align 8, !tbaa !1361
  tail call void @llvm.dbg.value(metadata i32 %numRecords, i64 0, metadata !1356, metadata !1359), !dbg !1364
  store i32 %numRecords, i32* %numRecords.addr, align 4, !tbaa !1365
  tail call void @llvm.dbg.value(metadata float %lat, i64 0, metadata !1357, metadata !1359), !dbg !1367
  store float %lat, float* %lat.addr, align 4, !tbaa !1368
  tail call void @llvm.dbg.value(metadata float %lng, i64 0, metadata !1358, metadata !1359), !dbg !1370
  store float %lng, float* %lng.addr, align 4, !tbaa !1368
  %0 = bitcast %struct.latLong** %d_locations.addr to i8*, !dbg !1371
  %1 = call i32 @cudaSetupArgument(i8* nonnull %0, i64 8, i64 0), !dbg !1371
  %2 = icmp eq i32 %1, 0, !dbg !1371
  br i1 %2, label %setup.next, label %setup.end, !dbg !1371

setup.next:                                       ; preds = %entry
  %3 = bitcast float** %d_distances.addr to i8*, !dbg !1372
  %4 = call i32 @cudaSetupArgument(i8* nonnull %3, i64 8, i64 8), !dbg !1372
  %5 = icmp eq i32 %4, 0, !dbg !1372
  br i1 %5, label %setup.next1, label %setup.end, !dbg !1372

setup.next1:                                      ; preds = %setup.next
  %6 = bitcast i32* %numRecords.addr to i8*, !dbg !1374
  %7 = call i32 @cudaSetupArgument(i8* nonnull %6, i64 4, i64 16), !dbg !1374
  %8 = icmp eq i32 %7, 0, !dbg !1374
  br i1 %8, label %setup.next2, label %setup.end, !dbg !1374

setup.next2:                                      ; preds = %setup.next1
  %9 = bitcast float* %lat.addr to i8*, !dbg !1376
  %10 = call i32 @cudaSetupArgument(i8* nonnull %9, i64 4, i64 20), !dbg !1376
  %11 = icmp eq i32 %10, 0, !dbg !1376
  br i1 %11, label %setup.next3, label %setup.end, !dbg !1376

setup.next3:                                      ; preds = %setup.next2
  %12 = bitcast float* %lng.addr to i8*, !dbg !1378
  %13 = call i32 @cudaSetupArgument(i8* nonnull %12, i64 4, i64 24), !dbg !1378
  %14 = icmp eq i32 %13, 0, !dbg !1378
  br i1 %14, label %setup.next4, label %setup.end, !dbg !1378

setup.next4:                                      ; preds = %setup.next3
  %15 = call i32 @cudaLaunch(i8* bitcast (void (%struct.latLong*, float*, i32, float, float)* @_Z6euclidP7latLongPfiff to i8*)), !dbg !1380
  br label %setup.end, !dbg !1380

setup.end:                                        ; preds = %setup.next4, %setup.next3, %setup.next2, %setup.next1, %setup.next, %entry
  ret void, !dbg !1382
}

declare i32 @cudaSetupArgument(i8*, i64, i64) local_unnamed_addr

declare i32 @cudaLaunch(i8*) local_unnamed_addr

; Function Attrs: norecurse uwtable
define i32 @main(i32 %argc, i8** nocapture readonly %argv) local_unnamed_addr #5 personality i8* bitcast (i32 (...)* @__gxx_personality_v0 to i8*) !dbg !1383 {
invoke.cont:
  %time.i212 = alloca %struct.timeval, align 8
  %time.i = alloca %struct.timeval, align 8
  %lat = alloca float, align 4
  %lng = alloca float, align 4
  %quiet = alloca i32, align 4
  %timing = alloca i32, align 4
  %platform = alloca i32, align 4
  %device = alloca i32, align 4
  %records = alloca %"class.std::vector", align 8
  %locations = alloca %"class.std::vector.0", align 8
  %filename = alloca [100 x i8], align 16
  %resultsCount = alloca i32, align 4
  %d_locations = alloca %struct.latLong*, align 8
  %d_distances = alloca float*, align 8
  %deviceProp = alloca %struct.cudaDeviceProp, align 8
  %totalDeviceMemory = alloca i64, align 8
  %freeDeviceMemory = alloca i64, align 8
  tail call void @llvm.dbg.value(metadata i32 %argc, i64 0, metadata !1387, metadata !1359), !dbg !1516
  tail call void @llvm.dbg.value(metadata i8** %argv, i64 0, metadata !1388, metadata !1359), !dbg !1517
  tail call void @llvm.dbg.value(metadata i32 0, i64 0, metadata !1389, metadata !1359), !dbg !1518
  %0 = bitcast float* %lat to i8*, !dbg !1519
  call void @llvm.lifetime.start(i64 4, i8* nonnull %0) #11, !dbg !1519
  %1 = bitcast float* %lng to i8*, !dbg !1519
  call void @llvm.lifetime.start(i64 4, i8* nonnull %1) #11, !dbg !1519
  %2 = bitcast i32* %quiet to i8*, !dbg !1520
  call void @llvm.lifetime.start(i64 4, i8* nonnull %2) #11, !dbg !1520
  tail call void @llvm.dbg.value(metadata i32 0, i64 0, metadata !1392, metadata !1359), !dbg !1521
  store i32 0, i32* %quiet, align 4, !dbg !1521, !tbaa !1365
  %3 = bitcast i32* %timing to i8*, !dbg !1520
  call void @llvm.lifetime.start(i64 4, i8* nonnull %3) #11, !dbg !1520
  tail call void @llvm.dbg.value(metadata i32 0, i64 0, metadata !1393, metadata !1359), !dbg !1522
  store i32 0, i32* %timing, align 4, !dbg !1522, !tbaa !1365
  %4 = bitcast i32* %platform to i8*, !dbg !1520
  call void @llvm.lifetime.start(i64 4, i8* nonnull %4) #11, !dbg !1520
  tail call void @llvm.dbg.value(metadata i32 0, i64 0, metadata !1394, metadata !1359), !dbg !1523
  store i32 0, i32* %platform, align 4, !dbg !1523, !tbaa !1365
  %5 = bitcast i32* %device to i8*, !dbg !1520
  call void @llvm.lifetime.start(i64 4, i8* nonnull %5) #11, !dbg !1520
  tail call void @llvm.dbg.value(metadata i32 0, i64 0, metadata !1395, metadata !1359), !dbg !1524
  store i32 0, i32* %device, align 4, !dbg !1524, !tbaa !1365
  %6 = bitcast %"class.std::vector"* %records to i8*, !dbg !1525
  call void @llvm.lifetime.start(i64 24, i8* nonnull %6) #11, !dbg !1525
  tail call void @llvm.dbg.value(metadata %"class.std::vector"* %records, i64 0, metadata !1396, metadata !1329), !dbg !1526
  tail call void @llvm.dbg.value(metadata %"class.std::vector"* %records, i64 0, metadata !1527, metadata !1359), !dbg !1531
  call void @llvm.memset.p0i8.i64(i8* nonnull %6, i8 0, i64 24, i32 8, i1 false) #11, !dbg !1533
  %7 = bitcast %"class.std::vector.0"* %locations to i8*, !dbg !1544
  call void @llvm.lifetime.start(i64 24, i8* nonnull %7) #11, !dbg !1544
  tail call void @llvm.dbg.value(metadata %"class.std::vector.0"* %locations, i64 0, metadata !1545, metadata !1359), !dbg !1549
  call void @llvm.memset.p0i8.i64(i8* nonnull %7, i8 0, i64 24, i32 8, i1 false) #11, !dbg !1551
  %8 = getelementptr inbounds [100 x i8], [100 x i8]* %filename, i64 0, i64 0, !dbg !1562
  call void @llvm.lifetime.start(i64 100, i8* nonnull %8) #11, !dbg !1562
  tail call void @llvm.dbg.declare(metadata [100 x i8]* %filename, metadata !1398, metadata !1359), !dbg !1563
  %9 = bitcast i32* %resultsCount to i8*, !dbg !1564
  call void @llvm.lifetime.start(i64 4, i8* nonnull %9) #11, !dbg !1564
  tail call void @llvm.dbg.value(metadata i32 10, i64 0, metadata !1402, metadata !1359), !dbg !1565
  store i32 10, i32* %resultsCount, align 4, !dbg !1565, !tbaa !1365
  tail call void @llvm.dbg.value(metadata float* %lat, i64 0, metadata !1390, metadata !1329), !dbg !1566
  tail call void @llvm.dbg.value(metadata float* %lng, i64 0, metadata !1391, metadata !1329), !dbg !1567
  tail call void @llvm.dbg.value(metadata i32* %quiet, i64 0, metadata !1392, metadata !1329), !dbg !1521
  tail call void @llvm.dbg.value(metadata i32* %timing, i64 0, metadata !1393, metadata !1329), !dbg !1522
  tail call void @llvm.dbg.value(metadata i32* %platform, i64 0, metadata !1394, metadata !1329), !dbg !1523
  tail call void @llvm.dbg.value(metadata i32* %device, i64 0, metadata !1395, metadata !1329), !dbg !1524
  tail call void @llvm.dbg.value(metadata i32* %resultsCount, i64 0, metadata !1402, metadata !1329), !dbg !1565
  %call = call i32 @_Z16parseCommandlineiPPcS_PiPfS2_S1_S1_S1_S1_(i32 %argc, i8** %argv, i8* nonnull %8, i32* nonnull %resultsCount, float* nonnull %lat, float* nonnull %lng, i32* nonnull %quiet, i32* nonnull %timing, i32* nonnull %platform, i32* nonnull %device), !dbg !1568
  %tobool = icmp eq i32 %call, 0, !dbg !1570
  br i1 %tobool, label %if.end, label %if.then, !dbg !1572

if.then:                                          ; preds = %invoke.cont
  invoke void @_Z10printUsagev()
          to label %cleanup unwind label %lpad1, !dbg !1574

lpad1:                                            ; preds = %if.end, %if.then
  %10 = landingpad { i8*, i32 }
          cleanup, !dbg !1576
  %11 = extractvalue { i8*, i32 } %10, 0, !dbg !1576
  %12 = extractvalue { i8*, i32 } %10, 1, !dbg !1576
  br label %ehcleanup118, !dbg !1576

if.end:                                           ; preds = %invoke.cont
  %call6 = invoke i32 @_Z8loadDataPcRSt6vectorI6recordSaIS1_EERS0_I7latLongSaIS5_EE(i8* nonnull %8, %"class.std::vector"* nonnull dereferenceable(24) %records, %"class.std::vector.0"* nonnull dereferenceable(24) %locations)
          to label %invoke.cont5 unwind label %lpad1, !dbg !1577

invoke.cont5:                                     ; preds = %if.end
  call void @llvm.dbg.value(metadata i32 %call6, i64 0, metadata !1403, metadata !1359), !dbg !1578
  %13 = load i32, i32* %resultsCount, align 4, !dbg !1579, !tbaa !1365
  call void @llvm.dbg.value(metadata i32 %13, i64 0, metadata !1402, metadata !1359), !dbg !1565
  %cmp = icmp sgt i32 %13, %call6, !dbg !1581
  br i1 %cmp, label %if.then7, label %if.end8, !dbg !1582

if.then7:                                         ; preds = %invoke.cont5
  call void @llvm.dbg.value(metadata i32 %call6, i64 0, metadata !1402, metadata !1359), !dbg !1565
  store i32 %call6, i32* %resultsCount, align 4, !dbg !1583, !tbaa !1365
  br label %if.end8, !dbg !1585

if.end8:                                          ; preds = %if.then7, %invoke.cont5
  %14 = phi i32 [ %call6, %if.then7 ], [ %13, %invoke.cont5 ]
  %15 = bitcast %struct.latLong** %d_locations to i8*, !dbg !1586
  call void @llvm.lifetime.start(i64 8, i8* nonnull %15) #11, !dbg !1586
  %16 = bitcast float** %d_distances to i8*, !dbg !1587
  call void @llvm.lifetime.start(i64 8, i8* nonnull %16) #11, !dbg !1587
  %17 = getelementptr inbounds %struct.cudaDeviceProp, %struct.cudaDeviceProp* %deviceProp, i64 0, i32 0, i64 0, !dbg !1588
  call void @llvm.lifetime.start(i64 632, i8* nonnull %17) #11, !dbg !1588
  %call11 = invoke i32 @cudaGetDeviceProperties(%struct.cudaDeviceProp* nonnull %deviceProp, i32 0)
          to label %invoke.cont10 unwind label %lpad9, !dbg !1589

invoke.cont10:                                    ; preds = %if.end8
  %call13 = invoke i32 @cudaThreadSynchronize()
          to label %invoke.cont12 unwind label %lpad9, !dbg !1590

invoke.cont12:                                    ; preds = %invoke.cont10
  %arrayidx = getelementptr inbounds %struct.cudaDeviceProp, %struct.cudaDeviceProp* %deviceProp, i64 0, i32 8, i64 0, !dbg !1591
  %18 = load i32, i32* %arrayidx, align 8, !dbg !1591, !tbaa !1365
  %conv = sext i32 %18 to i64, !dbg !1591
  call void @llvm.dbg.value(metadata i64 %conv, i64 0, metadata !1481, metadata !1359), !dbg !1592
  %maxThreadsPerBlock = getelementptr inbounds %struct.cudaDeviceProp, %struct.cudaDeviceProp* %deviceProp, i64 0, i32 6, !dbg !1593
  %19 = load i32, i32* %maxThreadsPerBlock, align 8, !dbg !1593, !tbaa !1594
  %20 = icmp slt i32 %19, 256, !dbg !1593
  %cond = select i1 %20, i32 %19, i32 256, !dbg !1593
  %conv16 = sext i32 %cond to i64, !dbg !1596
  call void @llvm.dbg.value(metadata i64 %conv16, i64 0, metadata !1482, metadata !1359), !dbg !1598
  %21 = bitcast i64* %totalDeviceMemory to i8*, !dbg !1599
  call void @llvm.lifetime.start(i64 8, i8* nonnull %21) #11, !dbg !1599
  %22 = bitcast i64* %freeDeviceMemory to i8*, !dbg !1600
  call void @llvm.lifetime.start(i64 8, i8* nonnull %22) #11, !dbg !1600
  %call19 = invoke i32 @cudaMemGetInfo(i64* nonnull %freeDeviceMemory, i64* nonnull %totalDeviceMemory)
          to label %invoke.cont18 unwind label %lpad17, !dbg !1601

invoke.cont18:                                    ; preds = %invoke.cont12
  %call21 = invoke i32 @cudaThreadSynchronize()
          to label %invoke.cont20 unwind label %lpad17, !dbg !1602

invoke.cont20:                                    ; preds = %invoke.cont18
  %23 = load i64, i64* %freeDeviceMemory, align 8, !dbg !1603, !tbaa !1604
  call void @llvm.dbg.value(metadata i64 %23, i64 0, metadata !1484, metadata !1359), !dbg !1605
  %mul = mul i64 %23, 85, !dbg !1606
  %div22 = udiv i64 %mul, 1200, !dbg !1607
  call void @llvm.dbg.value(metadata i64 %div22, i64 0, metadata !1486, metadata !1359), !dbg !1608
  %conv23 = sext i32 %call6 to i64, !dbg !1609
  %cmp24 = icmp ult i64 %div22, %conv23, !dbg !1611
  br i1 %cmp24, label %if.then25, label %if.end29, !dbg !1612

if.then25:                                        ; preds = %invoke.cont20
  %24 = load %struct._IO_FILE*, %struct._IO_FILE** @stderr, align 8, !dbg !1613, !tbaa !1361
  %25 = call i64 @fwrite(i8* getelementptr inbounds ([25 x i8], [25 x i8]* @.str, i64 0, i64 0), i64 24, i64 1, %struct._IO_FILE* %24) #12, !dbg !1615
  call void @exit(i32 1) #13, !dbg !1616
  unreachable, !dbg !1616

lpad9:                                            ; preds = %invoke.cont10, %if.end8
  %26 = landingpad { i8*, i32 }
          cleanup, !dbg !1617
  %27 = extractvalue { i8*, i32 } %26, 0, !dbg !1617
  %28 = extractvalue { i8*, i32 } %26, 1, !dbg !1617
  br label %ehcleanup113, !dbg !1617

lpad17:                                           ; preds = %invoke.cont18, %invoke.cont12
  %29 = landingpad { i8*, i32 }
          cleanup, !dbg !1619
  br label %ehcleanup109, !dbg !1619

if.end29:                                         ; preds = %invoke.cont20
  %add = add nsw i64 %conv23, -1, !dbg !1620
  %sub = add nsw i64 %add, %conv16, !dbg !1620
  %div31 = udiv i64 %sub, %conv16, !dbg !1620
  call void @llvm.dbg.value(metadata i64 %div31, i64 0, metadata !1487, metadata !1359), !dbg !1621
  %add32 = add nsw i64 %conv, -1, !dbg !1622
  %sub33 = add i64 %add32, %div31, !dbg !1622
  %div34 = udiv i64 %sub33, %conv, !dbg !1622
  call void @llvm.dbg.value(metadata i64 %div34, i64 0, metadata !1488, metadata !1359), !dbg !1623
  %add35 = add i64 %div31, -1, !dbg !1624
  %sub36 = add i64 %add35, %div34, !dbg !1624
  %div37 = udiv i64 %sub36, %div34, !dbg !1624
  call void @llvm.dbg.value(metadata i64 %div37, i64 0, metadata !1489, metadata !1359), !dbg !1625
  call void @llvm.dbg.value(metadata %struct.dim3* undef, i64 0, metadata !1490, metadata !1329), !dbg !1626
  tail call void @llvm.dbg.value(metadata %struct.dim3* undef, i64 0, metadata !1627, metadata !1359), !dbg !1634
  tail call void @llvm.dbg.value(metadata i32 1, i64 0, metadata !1632, metadata !1359), !dbg !1636
  %mul43 = shl nsw i64 %conv23, 2, !dbg !1637
  %call44 = call noalias i8* @malloc(i64 %mul43) #11, !dbg !1638
  %30 = bitcast i8* %call44 to float*, !dbg !1639
  call void @llvm.dbg.value(metadata float* %30, i64 0, metadata !1404, metadata !1359), !dbg !1640
  %31 = bitcast %struct.latLong** %d_locations to i8**, !dbg !1641
  %mul46 = shl nsw i64 %conv23, 3, !dbg !1642
  %call49 = invoke i32 @cudaMalloc(i8** nonnull %31, i64 %mul46)
          to label %invoke.cont48 unwind label %lpad47, !dbg !1643

invoke.cont48:                                    ; preds = %if.end29
  %32 = bitcast float** %d_distances to i8**, !dbg !1644
  %call53 = invoke i32 @cudaMalloc(i8** nonnull %32, i64 %mul43)
          to label %invoke.cont52 unwind label %lpad47, !dbg !1645

invoke.cont52:                                    ; preds = %invoke.cont48
  %33 = load i8*, i8** %31, align 8, !dbg !1646, !tbaa !1361
  call void @llvm.dbg.value(metadata %"class.std::vector.0"* %locations, i64 0, metadata !1397, metadata !1329), !dbg !1647
  tail call void @llvm.dbg.value(metadata %"class.std::vector.0"* %locations, i64 0, metadata !1648, metadata !1359), !dbg !1652
  tail call void @llvm.dbg.value(metadata i64 0, i64 0, metadata !1651, metadata !1359), !dbg !1654
  %34 = bitcast %"class.std::vector.0"* %locations to i8**, !dbg !1655
  %35 = load i8*, i8** %34, align 8, !dbg !1655, !tbaa !1656
  %call59 = invoke i32 @cudaMemcpy(i8* %33, i8* %35, i64 %mul46, i32 1)
          to label %invoke.cont58 unwind label %lpad47, !dbg !1659

invoke.cont58:                                    ; preds = %invoke.cont52
  %call61 = invoke i32 @cudaThreadSynchronize()
          to label %invoke.cont60 unwind label %lpad47, !dbg !1660

invoke.cont60:                                    ; preds = %invoke.cont58
  %36 = bitcast %struct.timeval* %time.i to i8*, !dbg !1661
  call void @llvm.lifetime.start(i64 16, i8* nonnull %36) #11, !dbg !1661
  call void @llvm.dbg.value(metadata %struct.timeval* %time.i, i64 0, metadata !1319, metadata !1329) #11, !dbg !1663
  %call.i = call i32 @gettimeofday(%struct.timeval* nonnull %time.i, %struct.timezone* null) #11, !dbg !1664
  %tobool.i = icmp eq i32 %call.i, 0, !dbg !1664
  br i1 %tobool.i, label %if.end.i, label %_Z8get_timev.exit, !dbg !1665

if.end.i:                                         ; preds = %invoke.cont60
  %tv_sec.i = getelementptr inbounds %struct.timeval, %struct.timeval* %time.i, i64 0, i32 0, !dbg !1666
  %37 = load i64, i64* %tv_sec.i, align 8, !dbg !1666, !tbaa !1335
  %conv.i = sitofp i64 %37 to double, !dbg !1667
  %tv_usec.i = getelementptr inbounds %struct.timeval, %struct.timeval* %time.i, i64 0, i32 1, !dbg !1668
  %38 = load i64, i64* %tv_usec.i, align 8, !dbg !1668, !tbaa !1342
  %conv1.i = sitofp i64 %38 to double, !dbg !1669
  %mul.i = fmul double %conv1.i, 1.000000e-06, !dbg !1670
  %add.i = fadd double %mul.i, %conv.i, !dbg !1671
  br label %_Z8get_timev.exit, !dbg !1672

_Z8get_timev.exit:                                ; preds = %invoke.cont60, %if.end.i
  %retval.0.i = phi double [ %add.i, %if.end.i ], [ 0.000000e+00, %invoke.cont60 ]
  call void @llvm.lifetime.end(i64 16, i8* nonnull %36) #11, !dbg !1673
  call void @llvm.dbg.value(metadata double %retval.0.i, i64 0, metadata !1514, metadata !1359), !dbg !1674
  %gridDim.sroa.0.sroa.5.0.insert.shift = shl i64 %div34, 32, !dbg !1675
  %gridDim.sroa.0.sroa.0.0.insert.ext = and i64 %div37, 4294967295, !dbg !1675
  %gridDim.sroa.0.sroa.0.0.insert.insert = or i64 %gridDim.sroa.0.sroa.0.0.insert.ext, %gridDim.sroa.0.sroa.5.0.insert.shift, !dbg !1675
  tail call void @llvm.dbg.value(metadata %struct.dim3* undef, i64 0, metadata !1627, metadata !1359), !dbg !1676
  tail call void @llvm.dbg.value(metadata i32 %cond, i64 0, metadata !1630, metadata !1359), !dbg !1678
  tail call void @llvm.dbg.value(metadata i32 1, i64 0, metadata !1631, metadata !1359), !dbg !1679
  tail call void @llvm.dbg.value(metadata i32 1, i64 0, metadata !1632, metadata !1359), !dbg !1680
  %agg.tmp64.sroa.0.0.insert.ext = zext i32 %cond to i64, !dbg !1681
  %agg.tmp64.sroa.0.4.insert.insert = or i64 %agg.tmp64.sroa.0.0.insert.ext, 4294967296, !dbg !1682
  %call69 = invoke i32 @cudaConfigureCall(i64 %gridDim.sroa.0.sroa.0.0.insert.insert, i32 1, i64 %agg.tmp64.sroa.0.4.insert.insert, i32 1, i64 0, %struct.CUstream_st* null)
          to label %invoke.cont68 unwind label %lpad66, !dbg !1683

invoke.cont68:                                    ; preds = %_Z8get_timev.exit
  %tobool70 = icmp eq i32 %call69, 0, !dbg !1684
  br i1 %tobool70, label %kcall.configok, label %kcall.end, !dbg !1685

kcall.configok:                                   ; preds = %invoke.cont68
  %39 = load %struct.latLong*, %struct.latLong** %d_locations, align 8, !dbg !1686, !tbaa !1361
  call void @llvm.dbg.value(metadata %struct.latLong* %39, i64 0, metadata !1405, metadata !1359), !dbg !1687
  %40 = load float*, float** %d_distances, align 8, !dbg !1688, !tbaa !1361
  call void @llvm.dbg.value(metadata float* %40, i64 0, metadata !1406, metadata !1359), !dbg !1689
  %41 = load float, float* %lat, align 4, !dbg !1690, !tbaa !1368
  call void @llvm.dbg.value(metadata float %41, i64 0, metadata !1390, metadata !1359), !dbg !1566
  %42 = load float, float* %lng, align 4, !dbg !1691, !tbaa !1368
  call void @llvm.dbg.value(metadata float %42, i64 0, metadata !1391, metadata !1359), !dbg !1567
  invoke void @_Z6euclidP7latLongPfiff(%struct.latLong* %39, float* %40, i32 %call6, float %41, float %42)
          to label %kcall.end unwind label %lpad66, !dbg !1692

lpad47:                                           ; preds = %invoke.cont58, %invoke.cont52, %invoke.cont48, %if.end29
  %43 = landingpad { i8*, i32 }
          cleanup, !dbg !1693
  br label %ehcleanup109, !dbg !1693

lpad66:                                           ; preds = %kcall.end, %kcall.configok, %_Z8get_timev.exit
  %44 = landingpad { i8*, i32 }
          cleanup, !dbg !1695
  br label %ehcleanup109, !dbg !1695

kcall.end:                                        ; preds = %invoke.cont68, %kcall.configok
  %call73 = invoke i32 @cudaThreadSynchronize()
          to label %invoke.cont72 unwind label %lpad66, !dbg !1697

invoke.cont72:                                    ; preds = %kcall.end
  %45 = bitcast %struct.timeval* %time.i212 to i8*, !dbg !1698
  call void @llvm.lifetime.start(i64 16, i8* nonnull %45) #11, !dbg !1698
  call void @llvm.dbg.value(metadata %struct.timeval* %time.i212, i64 0, metadata !1319, metadata !1329) #11, !dbg !1700
  %call.i213 = call i32 @gettimeofday(%struct.timeval* nonnull %time.i212, %struct.timezone* null) #11, !dbg !1701
  %tobool.i214 = icmp eq i32 %call.i213, 0, !dbg !1701
  br i1 %tobool.i214, label %if.end.i221, label %_Z8get_timev.exit223, !dbg !1702

if.end.i221:                                      ; preds = %invoke.cont72
  %tv_sec.i215 = getelementptr inbounds %struct.timeval, %struct.timeval* %time.i212, i64 0, i32 0, !dbg !1703
  %46 = load i64, i64* %tv_sec.i215, align 8, !dbg !1703, !tbaa !1335
  %conv.i216 = sitofp i64 %46 to double, !dbg !1704
  %tv_usec.i217 = getelementptr inbounds %struct.timeval, %struct.timeval* %time.i212, i64 0, i32 1, !dbg !1705
  %47 = load i64, i64* %tv_usec.i217, align 8, !dbg !1705, !tbaa !1342
  %conv1.i218 = sitofp i64 %47 to double, !dbg !1706
  %mul.i219 = fmul double %conv1.i218, 1.000000e-06, !dbg !1707
  %add.i220 = fadd double %mul.i219, %conv.i216, !dbg !1708
  br label %_Z8get_timev.exit223, !dbg !1709

_Z8get_timev.exit223:                             ; preds = %invoke.cont72, %if.end.i221
  %retval.0.i222 = phi double [ %add.i220, %if.end.i221 ], [ 0.000000e+00, %invoke.cont72 ]
  call void @llvm.lifetime.end(i64 16, i8* nonnull %45) #11, !dbg !1710
  call void @llvm.dbg.value(metadata double %retval.0.i222, i64 0, metadata !1515, metadata !1359), !dbg !1711
  %48 = load %struct._IO_FILE*, %struct._IO_FILE** @stderr, align 8, !dbg !1712, !tbaa !1361
  %sub76 = fsub double %retval.0.i222, %retval.0.i, !dbg !1713
  %call79 = call i32 (%struct._IO_FILE*, i8*, ...) @fprintf(%struct._IO_FILE* %48, i8* getelementptr inbounds ([4 x i8], [4 x i8]* @.str.1, i64 0, i64 0), double %sub76) #12, !dbg !1714
  %49 = load i8*, i8** %32, align 8, !dbg !1715, !tbaa !1361
  %call83 = invoke i32 @cudaMemcpy(i8* %call44, i8* %49, i64 %mul43, i32 2)
          to label %invoke.cont82 unwind label %lpad77, !dbg !1716

invoke.cont82:                                    ; preds = %_Z8get_timev.exit223
  call void @llvm.dbg.value(metadata i32 %14, i64 0, metadata !1402, metadata !1359), !dbg !1565
  call void @llvm.dbg.value(metadata %"class.std::vector"* %records, i64 0, metadata !1717, metadata !1359) #11, !dbg !1733
  call void @llvm.dbg.value(metadata float* %30, i64 0, metadata !1722, metadata !1359) #11, !dbg !1735
  call void @llvm.dbg.value(metadata i32 %call6, i64 0, metadata !1723, metadata !1359) #11, !dbg !1736
  call void @llvm.dbg.value(metadata i32 %14, i64 0, metadata !1724, metadata !1359) #11, !dbg !1737
  call void @llvm.dbg.value(metadata i32 0, i64 0, metadata !1725, metadata !1359) #11, !dbg !1738
  call void @llvm.dbg.value(metadata i32 0, i64 0, metadata !1725, metadata !1359) #11, !dbg !1738
  %cmp71.i = icmp sgt i32 %14, 0, !dbg !1739
  br i1 %cmp71.i, label %for.cond1.preheader.lr.ph.i, label %if.end98, !dbg !1743

for.cond1.preheader.lr.ph.i:                      ; preds = %invoke.cont82
  %_M_start.i.i = getelementptr inbounds %"class.std::vector", %"class.std::vector"* %records, i64 0, i32 0, i32 0, i32 0
  %wide.trip.count77.i = zext i32 %14 to i64
  %wide.trip.count.i = zext i32 %call6 to i64
  %50 = load %struct.record*, %struct.record** %_M_start.i.i, align 8, !tbaa !1745
  %51 = add nsw i64 %wide.trip.count.i, -1, !dbg !1743
  br label %for.cond1.preheader.i, !dbg !1743

for.cond1.preheader.i:                            ; preds = %for.end.i, %for.cond1.preheader.lr.ph.i
  %indvars.iv75.i = phi i64 [ 0, %for.cond1.preheader.lr.ph.i ], [ %indvars.iv.next76.i, %for.end.i ]
  call void @llvm.dbg.value(metadata i32 undef, i64 0, metadata !1726, metadata !1359) #11, !dbg !1748
  call void @llvm.dbg.value(metadata i32 undef, i64 0, metadata !1728, metadata !1359) #11, !dbg !1749
  %52 = sub i64 %51, %indvars.iv75.i, !dbg !1750
  %cmp268.i = icmp slt i64 %indvars.iv75.i, %conv23, !dbg !1750
  %53 = trunc i64 %indvars.iv75.i to i32, !dbg !1755
  br i1 %cmp268.i, label %for.body3.i.preheader, label %for.end.i, !dbg !1755

for.body3.i.preheader:                            ; preds = %for.cond1.preheader.i
  %54 = sub i64 %wide.trip.count.i, %indvars.iv75.i, !dbg !1750
  %xtraiter = and i64 %54, 3, !dbg !1757
  %lcmp.mod = icmp eq i64 %xtraiter, 0, !dbg !1757
  br i1 %lcmp.mod, label %for.body3.i.prol.loopexit, label %for.body3.i.prol.preheader, !dbg !1757

for.body3.i.prol.preheader:                       ; preds = %for.body3.i.preheader
  br label %for.body3.i.prol, !dbg !1757

for.body3.i.prol:                                 ; preds = %for.body3.i.prol, %for.body3.i.prol.preheader
  %indvars.iv73.i.prol = phi i64 [ %indvars.iv.next74.i.prol, %for.body3.i.prol ], [ %indvars.iv75.i, %for.body3.i.prol.preheader ]
  %minLoc.069.i.prol = phi i32 [ %minLoc.1.i.prol, %for.body3.i.prol ], [ %53, %for.body3.i.prol.preheader ]
  %prol.iter = phi i64 [ %prol.iter.sub, %for.body3.i.prol ], [ %xtraiter, %for.body3.i.prol.preheader ]
  %arrayidx.i.prol = getelementptr inbounds float, float* %30, i64 %indvars.iv73.i.prol, !dbg !1757
  %55 = load float, float* %arrayidx.i.prol, align 4, !dbg !1757, !tbaa !1368
  call void @llvm.dbg.value(metadata float %55, i64 0, metadata !1727, metadata !1359) #11, !dbg !1759
  %idxprom4.i.prol = sext i32 %minLoc.069.i.prol to i64, !dbg !1760
  %arrayidx5.i.prol = getelementptr inbounds float, float* %30, i64 %idxprom4.i.prol, !dbg !1760
  %56 = load float, float* %arrayidx5.i.prol, align 4, !dbg !1760, !tbaa !1368
  %cmp6.i.prol = fcmp olt float %55, %56, !dbg !1762
  call void @llvm.dbg.value(metadata i32 undef, i64 0, metadata !1728, metadata !1359) #11, !dbg !1749
  %57 = trunc i64 %indvars.iv73.i.prol to i32, !dbg !1763
  %minLoc.1.i.prol = select i1 %cmp6.i.prol, i32 %57, i32 %minLoc.069.i.prol, !dbg !1763
  call void @llvm.dbg.value(metadata i32 %minLoc.1.i.prol, i64 0, metadata !1728, metadata !1359) #11, !dbg !1749
  %indvars.iv.next74.i.prol = add nuw nsw i64 %indvars.iv73.i.prol, 1, !dbg !1764
  call void @llvm.dbg.value(metadata i32 %minLoc.1.i.prol, i64 0, metadata !1728, metadata !1359) #11, !dbg !1749
  %prol.iter.sub = add i64 %prol.iter, -1, !dbg !1755
  %prol.iter.cmp = icmp eq i64 %prol.iter.sub, 0, !dbg !1755
  br i1 %prol.iter.cmp, label %for.body3.i.prol.loopexit.unr-lcssa, label %for.body3.i.prol, !dbg !1755, !llvm.loop !1766

for.body3.i.prol.loopexit.unr-lcssa:              ; preds = %for.body3.i.prol
  br label %for.body3.i.prol.loopexit, !dbg !1757

for.body3.i.prol.loopexit:                        ; preds = %for.body3.i.preheader, %for.body3.i.prol.loopexit.unr-lcssa
  %minLoc.1.i.lcssa.unr = phi i32 [ undef, %for.body3.i.preheader ], [ %minLoc.1.i.prol, %for.body3.i.prol.loopexit.unr-lcssa ]
  %indvars.iv73.i.unr = phi i64 [ %indvars.iv75.i, %for.body3.i.preheader ], [ %indvars.iv.next74.i.prol, %for.body3.i.prol.loopexit.unr-lcssa ]
  %minLoc.069.i.unr = phi i32 [ %53, %for.body3.i.preheader ], [ %minLoc.1.i.prol, %for.body3.i.prol.loopexit.unr-lcssa ]
  %58 = icmp ult i64 %52, 3, !dbg !1757
  br i1 %58, label %for.end.i.loopexit, label %for.body3.i.preheader.new, !dbg !1757

for.body3.i.preheader.new:                        ; preds = %for.body3.i.prol.loopexit
  br label %for.body3.i, !dbg !1757

for.body3.i:                                      ; preds = %for.body3.i, %for.body3.i.preheader.new
  %indvars.iv73.i = phi i64 [ %indvars.iv73.i.unr, %for.body3.i.preheader.new ], [ %indvars.iv.next74.i.3, %for.body3.i ]
  %minLoc.069.i = phi i32 [ %minLoc.069.i.unr, %for.body3.i.preheader.new ], [ %minLoc.1.i.3, %for.body3.i ]
  %arrayidx.i = getelementptr inbounds float, float* %30, i64 %indvars.iv73.i, !dbg !1757
  %59 = load float, float* %arrayidx.i, align 4, !dbg !1757, !tbaa !1368
  call void @llvm.dbg.value(metadata float %59, i64 0, metadata !1727, metadata !1359) #11, !dbg !1759
  %idxprom4.i = sext i32 %minLoc.069.i to i64, !dbg !1760
  %arrayidx5.i = getelementptr inbounds float, float* %30, i64 %idxprom4.i, !dbg !1760
  %60 = load float, float* %arrayidx5.i, align 4, !dbg !1760, !tbaa !1368
  %cmp6.i = fcmp olt float %59, %60, !dbg !1762
  call void @llvm.dbg.value(metadata i32 undef, i64 0, metadata !1728, metadata !1359) #11, !dbg !1749
  %61 = trunc i64 %indvars.iv73.i to i32, !dbg !1763
  %minLoc.1.i = select i1 %cmp6.i, i32 %61, i32 %minLoc.069.i, !dbg !1763
  call void @llvm.dbg.value(metadata i32 %minLoc.1.i, i64 0, metadata !1728, metadata !1359) #11, !dbg !1749
  %indvars.iv.next74.i = add nuw nsw i64 %indvars.iv73.i, 1, !dbg !1764
  call void @llvm.dbg.value(metadata i32 %minLoc.1.i, i64 0, metadata !1728, metadata !1359) #11, !dbg !1749
  %arrayidx.i.1 = getelementptr inbounds float, float* %30, i64 %indvars.iv.next74.i, !dbg !1757
  %62 = load float, float* %arrayidx.i.1, align 4, !dbg !1757, !tbaa !1368
  call void @llvm.dbg.value(metadata float %59, i64 0, metadata !1727, metadata !1359) #11, !dbg !1759
  %idxprom4.i.1 = sext i32 %minLoc.1.i to i64, !dbg !1760
  %arrayidx5.i.1 = getelementptr inbounds float, float* %30, i64 %idxprom4.i.1, !dbg !1760
  %63 = load float, float* %arrayidx5.i.1, align 4, !dbg !1760, !tbaa !1368
  %cmp6.i.1 = fcmp olt float %62, %63, !dbg !1762
  call void @llvm.dbg.value(metadata i32 undef, i64 0, metadata !1728, metadata !1359) #11, !dbg !1749
  %64 = trunc i64 %indvars.iv.next74.i to i32, !dbg !1763
  %minLoc.1.i.1 = select i1 %cmp6.i.1, i32 %64, i32 %minLoc.1.i, !dbg !1763
  call void @llvm.dbg.value(metadata i32 %minLoc.1.i, i64 0, metadata !1728, metadata !1359) #11, !dbg !1749
  %indvars.iv.next74.i.1 = add nsw i64 %indvars.iv73.i, 2, !dbg !1764
  call void @llvm.dbg.value(metadata i32 %minLoc.1.i, i64 0, metadata !1728, metadata !1359) #11, !dbg !1749
  %arrayidx.i.2 = getelementptr inbounds float, float* %30, i64 %indvars.iv.next74.i.1, !dbg !1757
  %65 = load float, float* %arrayidx.i.2, align 4, !dbg !1757, !tbaa !1368
  call void @llvm.dbg.value(metadata float %59, i64 0, metadata !1727, metadata !1359) #11, !dbg !1759
  %idxprom4.i.2 = sext i32 %minLoc.1.i.1 to i64, !dbg !1760
  %arrayidx5.i.2 = getelementptr inbounds float, float* %30, i64 %idxprom4.i.2, !dbg !1760
  %66 = load float, float* %arrayidx5.i.2, align 4, !dbg !1760, !tbaa !1368
  %cmp6.i.2 = fcmp olt float %65, %66, !dbg !1762
  call void @llvm.dbg.value(metadata i32 undef, i64 0, metadata !1728, metadata !1359) #11, !dbg !1749
  %67 = trunc i64 %indvars.iv.next74.i.1 to i32, !dbg !1763
  %minLoc.1.i.2 = select i1 %cmp6.i.2, i32 %67, i32 %minLoc.1.i.1, !dbg !1763
  call void @llvm.dbg.value(metadata i32 %minLoc.1.i, i64 0, metadata !1728, metadata !1359) #11, !dbg !1749
  %indvars.iv.next74.i.2 = add nsw i64 %indvars.iv73.i, 3, !dbg !1764
  call void @llvm.dbg.value(metadata i32 %minLoc.1.i, i64 0, metadata !1728, metadata !1359) #11, !dbg !1749
  %arrayidx.i.3 = getelementptr inbounds float, float* %30, i64 %indvars.iv.next74.i.2, !dbg !1757
  %68 = load float, float* %arrayidx.i.3, align 4, !dbg !1757, !tbaa !1368
  call void @llvm.dbg.value(metadata float %59, i64 0, metadata !1727, metadata !1359) #11, !dbg !1759
  %idxprom4.i.3 = sext i32 %minLoc.1.i.2 to i64, !dbg !1760
  %arrayidx5.i.3 = getelementptr inbounds float, float* %30, i64 %idxprom4.i.3, !dbg !1760
  %69 = load float, float* %arrayidx5.i.3, align 4, !dbg !1760, !tbaa !1368
  %cmp6.i.3 = fcmp olt float %68, %69, !dbg !1762
  call void @llvm.dbg.value(metadata i32 undef, i64 0, metadata !1728, metadata !1359) #11, !dbg !1749
  %70 = trunc i64 %indvars.iv.next74.i.2 to i32, !dbg !1763
  %minLoc.1.i.3 = select i1 %cmp6.i.3, i32 %70, i32 %minLoc.1.i.2, !dbg !1763
  call void @llvm.dbg.value(metadata i32 %minLoc.1.i, i64 0, metadata !1728, metadata !1359) #11, !dbg !1749
  %indvars.iv.next74.i.3 = add nsw i64 %indvars.iv73.i, 4, !dbg !1764
  call void @llvm.dbg.value(metadata i32 %minLoc.1.i, i64 0, metadata !1728, metadata !1359) #11, !dbg !1749
  %exitcond.i.3 = icmp eq i64 %indvars.iv.next74.i.3, %wide.trip.count.i, !dbg !1750
  br i1 %exitcond.i.3, label %for.end.i.loopexit.unr-lcssa, label %for.body3.i, !dbg !1755, !llvm.loop !1768

for.end.i.loopexit.unr-lcssa:                     ; preds = %for.body3.i
  br label %for.end.i.loopexit, !dbg !1771

for.end.i.loopexit:                               ; preds = %for.body3.i.prol.loopexit, %for.end.i.loopexit.unr-lcssa
  %minLoc.1.i.lcssa = phi i32 [ %minLoc.1.i.lcssa.unr, %for.body3.i.prol.loopexit ], [ %minLoc.1.i.3, %for.end.i.loopexit.unr-lcssa ]
  br label %for.end.i, !dbg !1771

for.end.i:                                        ; preds = %for.end.i.loopexit, %for.cond1.preheader.i
  %minLoc.0.lcssa.i = phi i32 [ %53, %for.cond1.preheader.i ], [ %minLoc.1.i.lcssa, %for.end.i.loopexit ]
  call void @llvm.dbg.value(metadata %"class.std::vector"* %records, i64 0, metadata !1774, metadata !1359) #11, !dbg !1771
  call void @llvm.dbg.value(metadata i64 %indvars.iv75.i, i64 0, metadata !1775, metadata !1359) #11, !dbg !1777
  %conv7.i = sext i32 %minLoc.0.lcssa.i to i64, !dbg !1778
  call void @llvm.dbg.value(metadata %"class.std::vector"* %records, i64 0, metadata !1774, metadata !1359) #11, !dbg !1779
  call void @llvm.dbg.value(metadata i64 %conv7.i, i64 0, metadata !1775, metadata !1359) #11, !dbg !1781
  call void @llvm.dbg.value(metadata %"class.std::vector"* %records, i64 0, metadata !1774, metadata !1359) #11, !dbg !1782
  call void @llvm.dbg.value(metadata i64 %indvars.iv75.i, i64 0, metadata !1775, metadata !1359) #11, !dbg !1785
  %71 = getelementptr inbounds %struct.record, %struct.record* %50, i64 %indvars.iv75.i, i32 0, i64 0, !dbg !1786
  %72 = getelementptr inbounds %struct.record, %struct.record* %50, i64 %conv7.i, i32 0, i64 0, !dbg !1786
  call void @llvm.memcpy.p0i8.p0i8.i64(i8* %71, i8* %72, i64 60, i32 4, i1 false) #11, !dbg !1786, !tbaa.struct !1787
  call void @llvm.dbg.value(metadata %"class.std::vector"* %records, i64 0, metadata !1774, metadata !1359) #11, !dbg !1789
  call void @llvm.dbg.value(metadata i64 %conv7.i, i64 0, metadata !1775, metadata !1359) #11, !dbg !1791
  %arrayidx14.i = getelementptr inbounds float, float* %30, i64 %indvars.iv75.i, !dbg !1792
  %73 = bitcast float* %arrayidx14.i to i32*, !dbg !1792
  %74 = load i32, i32* %73, align 4, !dbg !1792, !tbaa !1368
  %arrayidx16.i = getelementptr inbounds float, float* %30, i64 %conv7.i, !dbg !1793
  %75 = bitcast float* %arrayidx16.i to i32*, !dbg !1793
  %76 = load i32, i32* %75, align 4, !dbg !1793, !tbaa !1368
  store i32 %76, i32* %73, align 4, !dbg !1794, !tbaa !1368
  store i32 %74, i32* %75, align 4, !dbg !1795, !tbaa !1368
  %77 = load i32, i32* %73, align 4, !dbg !1796, !tbaa !1368
  call void @llvm.dbg.value(metadata %"class.std::vector"* %records, i64 0, metadata !1774, metadata !1359) #11, !dbg !1797
  call void @llvm.dbg.value(metadata i64 %indvars.iv75.i, i64 0, metadata !1775, metadata !1359) #11, !dbg !1799
  %distance.i = getelementptr inbounds %struct.record, %struct.record* %50, i64 %indvars.iv75.i, i32 1, !dbg !1800
  %78 = bitcast float* %distance.i to i32*, !dbg !1801
  store i32 %77, i32* %78, align 4, !dbg !1801, !tbaa !1802
  %indvars.iv.next76.i = add nuw nsw i64 %indvars.iv75.i, 1, !dbg !1804
  %exitcond78.i = icmp eq i64 %indvars.iv.next76.i, %wide.trip.count77.i, !dbg !1739
  br i1 %exitcond78.i, label %invoke.cont84, label %for.cond1.preheader.i, !dbg !1743, !llvm.loop !1806

invoke.cont84:                                    ; preds = %for.end.i
  %79 = load i32, i32* %quiet, align 4, !dbg !1809, !tbaa !1365
  call void @llvm.dbg.value(metadata i32 %79, i64 0, metadata !1392, metadata !1359), !dbg !1521
  %tobool85 = icmp eq i32 %79, 0, !dbg !1809
  %or.cond = and i1 %tobool85, %cmp71.i, !dbg !1811
  call void @llvm.dbg.value(metadata i32 0, i64 0, metadata !1389, metadata !1359), !dbg !1518
  br i1 %or.cond, label %for.body.lr.ph, label %if.end98, !dbg !1811

for.body.lr.ph:                                   ; preds = %invoke.cont84
  %_M_start.i225 = getelementptr inbounds %"class.std::vector", %"class.std::vector"* %records, i64 0, i32 0, i32 0, i32 0
  %80 = sext i32 %14 to i64, !dbg !1812
  br label %for.body, !dbg !1812

for.body:                                         ; preds = %for.body.lr.ph, %for.body
  %indvars.iv = phi i64 [ 0, %for.body.lr.ph ], [ %indvars.iv.next, %for.body ]
  call void @llvm.dbg.value(metadata %"class.std::vector"* %records, i64 0, metadata !1396, metadata !1329), !dbg !1526
  tail call void @llvm.dbg.value(metadata %"class.std::vector"* %records, i64 0, metadata !1774, metadata !1359), !dbg !1815
  tail call void @llvm.dbg.value(metadata i64 %indvars.iv, i64 0, metadata !1775, metadata !1359), !dbg !1819
  %81 = load %struct.record*, %struct.record** %_M_start.i225, align 8, !dbg !1820, !tbaa !1745
  %arraydecay91 = getelementptr inbounds %struct.record, %struct.record* %81, i64 %indvars.iv, i32 0, i64 0, !dbg !1821
  call void @llvm.dbg.value(metadata %"class.std::vector"* %records, i64 0, metadata !1396, metadata !1329), !dbg !1526
  tail call void @llvm.dbg.value(metadata %"class.std::vector"* %records, i64 0, metadata !1774, metadata !1359), !dbg !1823
  tail call void @llvm.dbg.value(metadata i64 %indvars.iv, i64 0, metadata !1775, metadata !1359), !dbg !1825
  %distance = getelementptr inbounds %struct.record, %struct.record* %81, i64 %indvars.iv, i32 1, !dbg !1826
  %82 = load float, float* %distance, align 4, !dbg !1826, !tbaa !1802
  %conv95 = fpext float %82 to double, !dbg !1828
  %call97 = call i32 (i8*, ...) @printf(i8* getelementptr inbounds ([20 x i8], [20 x i8]* @.str.2, i64 0, i64 0), i8* %arraydecay91, double %conv95), !dbg !1829
  %indvars.iv.next = add nuw nsw i64 %indvars.iv, 1, !dbg !1830
  call void @llvm.dbg.value(metadata i32 %14, i64 0, metadata !1402, metadata !1359), !dbg !1565
  %cmp87 = icmp slt i64 %indvars.iv.next, %80, !dbg !1832
  br i1 %cmp87, label %for.body, label %if.end98.loopexit, !dbg !1812, !llvm.loop !1834

lpad77:                                           ; preds = %invoke.cont99, %if.end98, %_Z8get_timev.exit223
  %83 = landingpad { i8*, i32 }
          cleanup, !dbg !1837
  br label %ehcleanup109, !dbg !1837

if.end98.loopexit:                                ; preds = %for.body
  br label %if.end98, !dbg !1839

if.end98:                                         ; preds = %if.end98.loopexit, %invoke.cont82, %invoke.cont84
  call void @free(i8* %call44) #11, !dbg !1839
  %84 = load i8*, i8** %31, align 8, !dbg !1840, !tbaa !1361
  %call100 = invoke i32 @cudaFree(i8* %84)
          to label %invoke.cont99 unwind label %lpad77, !dbg !1841

invoke.cont99:                                    ; preds = %if.end98
  %85 = load i8*, i8** %32, align 8, !dbg !1842, !tbaa !1361
  %call102 = invoke i32 @cudaFree(i8* %85)
          to label %invoke.cont101 unwind label %lpad77, !dbg !1843

invoke.cont101:                                   ; preds = %invoke.cont99
  call void @llvm.lifetime.end(i64 8, i8* nonnull %22) #11, !dbg !1844
  call void @llvm.lifetime.end(i64 8, i8* nonnull %21) #11, !dbg !1844
  call void @llvm.lifetime.end(i64 632, i8* nonnull %17) #11, !dbg !1844
  call void @llvm.lifetime.end(i64 8, i8* nonnull %16) #11, !dbg !1844
  call void @llvm.lifetime.end(i64 8, i8* nonnull %15) #11, !dbg !1844
  br label %cleanup, !dbg !1845

cleanup:                                          ; preds = %if.then, %invoke.cont101
  call void @llvm.lifetime.end(i64 4, i8* nonnull %9) #11, !dbg !1844
  call void @llvm.lifetime.end(i64 100, i8* nonnull %8) #11, !dbg !1844
  call void @llvm.dbg.value(metadata %"class.std::vector.0"* %locations, i64 0, metadata !1847, metadata !1359), !dbg !1850
  %_M_start.i6.i208 = getelementptr inbounds %"class.std::vector.0", %"class.std::vector.0"* %locations, i64 0, i32 0, i32 0, i32 0, !dbg !1853
  %86 = load %struct.latLong*, %struct.latLong** %_M_start.i6.i208, align 8, !dbg !1853, !tbaa !1656
  call void @llvm.dbg.value(metadata %struct.latLong* %86, i64 0, metadata !1861, metadata !1359), !dbg !1866
  %tobool.i.i7.i209 = icmp eq %struct.latLong* %86, null, !dbg !1868
  br i1 %tobool.i.i7.i209, label %invoke.cont123, label %if.then.i.i8.i210, !dbg !1870

if.then.i.i8.i210:                                ; preds = %cleanup
  call void @llvm.dbg.value(metadata %struct.latLong* %86, i64 0, metadata !1871, metadata !1359) #11, !dbg !1877
  %87 = bitcast %struct.latLong* %86 to i8*, !dbg !1879
  call void @_ZdlPv(i8* %87) #11, !dbg !1880
  br label %invoke.cont123, !dbg !1881

invoke.cont123:                                   ; preds = %if.then.i.i8.i210, %cleanup
  call void @llvm.lifetime.end(i64 24, i8* nonnull %7) #11, !dbg !1844
  call void @llvm.dbg.value(metadata %"class.std::vector"* %records, i64 0, metadata !1396, metadata !1329), !dbg !1526
  call void @llvm.dbg.value(metadata %"class.std::vector"* %records, i64 0, metadata !1882, metadata !1359), !dbg !1885
  %_M_start.i6.i201 = getelementptr inbounds %"class.std::vector", %"class.std::vector"* %records, i64 0, i32 0, i32 0, i32 0, !dbg !1888
  %88 = load %struct.record*, %struct.record** %_M_start.i6.i201, align 8, !dbg !1888, !tbaa !1745
  call void @llvm.dbg.value(metadata %struct.record* %88, i64 0, metadata !1896, metadata !1359), !dbg !1901
  %tobool.i.i7.i202 = icmp eq %struct.record* %88, null, !dbg !1903
  br i1 %tobool.i.i7.i202, label %_ZNSt6vectorI6recordSaIS0_EED2Ev.exit204, label %if.then.i.i8.i203, !dbg !1905

if.then.i.i8.i203:                                ; preds = %invoke.cont123
  call void @llvm.dbg.value(metadata %struct.record* %88, i64 0, metadata !1906, metadata !1359) #11, !dbg !1912
  %89 = getelementptr inbounds %struct.record, %struct.record* %88, i64 0, i32 0, i64 0, !dbg !1914
  call void @_ZdlPv(i8* %89) #11, !dbg !1915
  br label %_ZNSt6vectorI6recordSaIS0_EED2Ev.exit204, !dbg !1916

_ZNSt6vectorI6recordSaIS0_EED2Ev.exit204:         ; preds = %invoke.cont123, %if.then.i.i8.i203
  call void @llvm.lifetime.end(i64 24, i8* nonnull %6) #11, !dbg !1844
  call void @llvm.lifetime.end(i64 4, i8* nonnull %5) #11, !dbg !1844
  call void @llvm.lifetime.end(i64 4, i8* nonnull %4) #11, !dbg !1844
  call void @llvm.lifetime.end(i64 4, i8* nonnull %3) #11, !dbg !1844
  call void @llvm.lifetime.end(i64 4, i8* nonnull %2) #11, !dbg !1844
  call void @llvm.lifetime.end(i64 4, i8* nonnull %1) #11, !dbg !1844
  call void @llvm.lifetime.end(i64 4, i8* nonnull %0) #11, !dbg !1844
  ret i32 0, !dbg !1917

ehcleanup109:                                     ; preds = %lpad47, %lpad77, %lpad66, %lpad17
  %.sink196.sink197.sink235 = phi { i8*, i32 } [ %29, %lpad17 ], [ %43, %lpad47 ], [ %83, %lpad77 ], [ %44, %lpad66 ]
  %90 = extractvalue { i8*, i32 } %.sink196.sink197.sink235, 0
  %91 = extractvalue { i8*, i32 } %.sink196.sink197.sink235, 1
  call void @llvm.lifetime.end(i64 8, i8* nonnull %22) #11, !dbg !1844
  call void @llvm.lifetime.end(i64 8, i8* nonnull %21) #11, !dbg !1844
  br label %ehcleanup113, !dbg !1919

ehcleanup113:                                     ; preds = %ehcleanup109, %lpad9
  %ehselector.slot.4 = phi i32 [ %91, %ehcleanup109 ], [ %28, %lpad9 ]
  %exn.slot.4 = phi i8* [ %90, %ehcleanup109 ], [ %27, %lpad9 ]
  call void @llvm.lifetime.end(i64 632, i8* nonnull %17) #11, !dbg !1844
  call void @llvm.lifetime.end(i64 8, i8* nonnull %16) #11, !dbg !1844
  call void @llvm.lifetime.end(i64 8, i8* nonnull %15) #11, !dbg !1844
  br label %ehcleanup118, !dbg !1921

ehcleanup118:                                     ; preds = %ehcleanup113, %lpad1
  %ehselector.slot.5 = phi i32 [ %12, %lpad1 ], [ %ehselector.slot.4, %ehcleanup113 ]
  %exn.slot.5 = phi i8* [ %11, %lpad1 ], [ %exn.slot.4, %ehcleanup113 ]
  call void @llvm.lifetime.end(i64 4, i8* nonnull %9) #11, !dbg !1844
  call void @llvm.lifetime.end(i64 100, i8* nonnull %8) #11, !dbg !1844
  call void @llvm.dbg.value(metadata %"class.std::vector.0"* %locations, i64 0, metadata !1847, metadata !1359), !dbg !1923
  %_M_start.i6.i198 = getelementptr inbounds %"class.std::vector.0", %"class.std::vector.0"* %locations, i64 0, i32 0, i32 0, i32 0, !dbg !1926
  %92 = load %struct.latLong*, %struct.latLong** %_M_start.i6.i198, align 8, !dbg !1926, !tbaa !1656
  call void @llvm.dbg.value(metadata %struct.latLong* %92, i64 0, metadata !1861, metadata !1359), !dbg !1928
  %tobool.i.i7.i199 = icmp eq %struct.latLong* %92, null, !dbg !1930
  br i1 %tobool.i.i7.i199, label %ehcleanup129, label %if.then.i.i8.i200, !dbg !1931

if.then.i.i8.i200:                                ; preds = %ehcleanup118
  call void @llvm.dbg.value(metadata %struct.latLong* %92, i64 0, metadata !1871, metadata !1359) #11, !dbg !1932
  %93 = bitcast %struct.latLong* %92 to i8*, !dbg !1934
  call void @_ZdlPv(i8* %93) #11, !dbg !1935
  br label %ehcleanup129, !dbg !1936

ehcleanup129:                                     ; preds = %ehcleanup118, %if.then.i.i8.i200
  call void @llvm.lifetime.end(i64 24, i8* nonnull %7) #11, !dbg !1844
  call void @llvm.dbg.value(metadata %"class.std::vector"* %records, i64 0, metadata !1882, metadata !1359), !dbg !1937
  %_M_start.i6.i = getelementptr inbounds %"class.std::vector", %"class.std::vector"* %records, i64 0, i32 0, i32 0, i32 0, !dbg !1940
  %94 = load %struct.record*, %struct.record** %_M_start.i6.i, align 8, !dbg !1940, !tbaa !1745
  call void @llvm.dbg.value(metadata %struct.record* %94, i64 0, metadata !1896, metadata !1359), !dbg !1942
  %tobool.i.i7.i = icmp eq %struct.record* %94, null, !dbg !1944
  br i1 %tobool.i.i7.i, label %invoke.cont130, label %if.then.i.i8.i, !dbg !1945

if.then.i.i8.i:                                   ; preds = %ehcleanup129
  call void @llvm.dbg.value(metadata %struct.record* %94, i64 0, metadata !1906, metadata !1359) #11, !dbg !1946
  %95 = getelementptr inbounds %struct.record, %struct.record* %94, i64 0, i32 0, i64 0, !dbg !1948
  call void @_ZdlPv(i8* %95) #11, !dbg !1949
  br label %invoke.cont130, !dbg !1950

invoke.cont130:                                   ; preds = %if.then.i.i8.i, %ehcleanup129
  call void @llvm.lifetime.end(i64 24, i8* nonnull %6) #11, !dbg !1844
  call void @llvm.lifetime.end(i64 4, i8* nonnull %5) #11, !dbg !1844
  call void @llvm.lifetime.end(i64 4, i8* nonnull %4) #11, !dbg !1844
  call void @llvm.lifetime.end(i64 4, i8* nonnull %3) #11, !dbg !1844
  call void @llvm.lifetime.end(i64 4, i8* nonnull %2) #11, !dbg !1844
  call void @llvm.lifetime.end(i64 4, i8* nonnull %1) #11, !dbg !1844
  call void @llvm.lifetime.end(i64 4, i8* nonnull %0) #11, !dbg !1844
  %lpad.val = insertvalue { i8*, i32 } undef, i8* %exn.slot.5, 0, !dbg !1951
  %lpad.val147 = insertvalue { i8*, i32 } %lpad.val, i32 %ehselector.slot.5, 1, !dbg !1951
  resume { i8*, i32 } %lpad.val147, !dbg !1951
}

declare i32 @__gxx_personality_v0(...)

; Function Attrs: nounwind uwtable
define i32 @_Z16parseCommandlineiPPcS_PiPfS2_S1_S1_S1_S1_(i32 %argc, i8** nocapture readonly %argv, i8* %filename, i32* nocapture %r, float* nocapture %lat, float* nocapture %lng, i32* nocapture %q, i32* nocapture %t, i32* nocapture %p, i32* nocapture %d) local_unnamed_addr #0 !dbg !1953 {
entry:
  tail call void @llvm.dbg.value(metadata i32 %argc, i64 0, metadata !1957, metadata !1359), !dbg !1969
  tail call void @llvm.dbg.value(metadata i8** %argv, i64 0, metadata !1958, metadata !1359), !dbg !1970
  tail call void @llvm.dbg.value(metadata i8* %filename, i64 0, metadata !1959, metadata !1359), !dbg !1971
  tail call void @llvm.dbg.value(metadata i32* %r, i64 0, metadata !1960, metadata !1359), !dbg !1972
  tail call void @llvm.dbg.value(metadata float* %lat, i64 0, metadata !1961, metadata !1359), !dbg !1973
  tail call void @llvm.dbg.value(metadata float* %lng, i64 0, metadata !1962, metadata !1359), !dbg !1974
  tail call void @llvm.dbg.value(metadata i32* %q, i64 0, metadata !1963, metadata !1359), !dbg !1975
  tail call void @llvm.dbg.value(metadata i32* %t, i64 0, metadata !1964, metadata !1359), !dbg !1976
  tail call void @llvm.dbg.value(metadata i32* %p, i64 0, metadata !1965, metadata !1359), !dbg !1977
  tail call void @llvm.dbg.value(metadata i32* %d, i64 0, metadata !1966, metadata !1359), !dbg !1978
  %cmp = icmp slt i32 %argc, 2, !dbg !1979
  br i1 %cmp, label %cleanup53, label %for.body.preheader, !dbg !1981

for.body.preheader:                               ; preds = %entry
  %arrayidx = getelementptr inbounds i8*, i8** %argv, i64 1, !dbg !1982
  %0 = load i8*, i8** %arrayidx, align 8, !dbg !1982, !tbaa !1361
  %call = tail call i8* @strncpy(i8* %filename, i8* %0, i64 100) #11, !dbg !1983
  tail call void @llvm.dbg.value(metadata i32 1, i64 0, metadata !1967, metadata !1359), !dbg !1984
  tail call void @llvm.dbg.value(metadata i32 1, i64 0, metadata !1967, metadata !1359), !dbg !1984
  br label %for.body, !dbg !1985

for.body:                                         ; preds = %for.body.preheader, %for.inc
  %i.086 = phi i32 [ %inc45, %for.inc ], [ 1, %for.body.preheader ]
  %idxprom = sext i32 %i.086 to i64, !dbg !1985
  %arrayidx2 = getelementptr inbounds i8*, i8** %argv, i64 %idxprom, !dbg !1985
  %1 = load i8*, i8** %arrayidx2, align 8, !dbg !1985, !tbaa !1361
  %2 = load i8, i8* %1, align 1, !dbg !1985, !tbaa !1788
  %cmp4 = icmp eq i8 %2, 45, !dbg !1990
  br i1 %cmp4, label %if.then5, label %for.inc, !dbg !1991

if.then5:                                         ; preds = %for.body
  %arrayidx8 = getelementptr inbounds i8, i8* %1, i64 1, !dbg !1992
  %3 = load i8, i8* %arrayidx8, align 1, !dbg !1992, !tbaa !1788
  tail call void @llvm.dbg.value(metadata i8 %3, i64 0, metadata !1968, metadata !1359), !dbg !1994
  %conv9 = sext i8 %3 to i32, !dbg !1995
  switch i32 %conv9, label %for.inc [
    i32 114, label %sw.bb
    i32 108, label %sw.bb13
    i32 104, label %cleanup53.loopexit
    i32 113, label %sw.bb32
    i32 116, label %sw.bb33
    i32 112, label %sw.bb34
    i32 100, label %sw.bb39
  ], !dbg !1996

sw.bb:                                            ; preds = %if.then5
  %inc = add nsw i32 %i.086, 1, !dbg !1997
  tail call void @llvm.dbg.value(metadata i32 %inc, i64 0, metadata !1967, metadata !1359), !dbg !1984
  %idxprom10 = sext i32 %inc to i64, !dbg !1999
  %arrayidx11 = getelementptr inbounds i8*, i8** %argv, i64 %idxprom10, !dbg !1999
  %4 = load i8*, i8** %arrayidx11, align 8, !dbg !1999, !tbaa !1361
  tail call void @llvm.dbg.value(metadata i8* %4, i64 0, metadata !1035, metadata !1359) #11, !dbg !2000
  %call.i = tail call i64 @strtol(i8* nocapture nonnull %4, i8** null, i32 10) #11, !dbg !2002
  %conv.i = trunc i64 %call.i to i32, !dbg !2002
  store i32 %conv.i, i32* %r, align 4, !dbg !2003, !tbaa !1365
  br label %for.inc, !dbg !2004

sw.bb13:                                          ; preds = %if.then5
  %arrayidx16 = getelementptr inbounds i8, i8* %1, i64 2, !dbg !2005
  %5 = load i8, i8* %arrayidx16, align 1, !dbg !2005, !tbaa !1788
  %cmp18 = icmp eq i8 %5, 97, !dbg !2007
  %add = add nsw i32 %i.086, 1
  %idxprom20 = sext i32 %add to i64
  %arrayidx21 = getelementptr inbounds i8*, i8** %argv, i64 %idxprom20
  %6 = load i8*, i8** %arrayidx21, align 8, !tbaa !1361
  tail call void @llvm.dbg.value(metadata i8* %6, i64 0, metadata !1029, metadata !1359) #11, !dbg !2008
  %call.i80 = tail call double @strtod(i8* nocapture nonnull %6, i8** null) #11, !dbg !2011
  %conv23 = fptrunc double %call.i80 to float
  %.sink = select i1 %cmp18, float* %lat, float* %lng, !dbg !2012
  store float %conv23, float* %.sink, align 4, !tbaa !1368
  tail call void @llvm.dbg.value(metadata i32 %add, i64 0, metadata !1967, metadata !1359), !dbg !1984
  br label %for.inc, !dbg !2013

sw.bb32:                                          ; preds = %if.then5
  store i32 1, i32* %q, align 4, !dbg !2014, !tbaa !1365
  br label %for.inc, !dbg !2015

sw.bb33:                                          ; preds = %if.then5
  store i32 1, i32* %t, align 4, !dbg !2016, !tbaa !1365
  br label %for.inc, !dbg !2017

sw.bb34:                                          ; preds = %if.then5
  %inc35 = add nsw i32 %i.086, 1, !dbg !2018
  tail call void @llvm.dbg.value(metadata i32 %inc35, i64 0, metadata !1967, metadata !1359), !dbg !1984
  %idxprom36 = sext i32 %inc35 to i64, !dbg !2019
  %arrayidx37 = getelementptr inbounds i8*, i8** %argv, i64 %idxprom36, !dbg !2019
  %7 = load i8*, i8** %arrayidx37, align 8, !dbg !2019, !tbaa !1361
  tail call void @llvm.dbg.value(metadata i8* %7, i64 0, metadata !1035, metadata !1359) #11, !dbg !2020
  %call.i81 = tail call i64 @strtol(i8* nocapture nonnull %7, i8** null, i32 10) #11, !dbg !2022
  %conv.i82 = trunc i64 %call.i81 to i32, !dbg !2022
  store i32 %conv.i82, i32* %p, align 4, !dbg !2023, !tbaa !1365
  br label %for.inc, !dbg !2024

sw.bb39:                                          ; preds = %if.then5
  %inc40 = add nsw i32 %i.086, 1, !dbg !2025
  tail call void @llvm.dbg.value(metadata i32 %inc40, i64 0, metadata !1967, metadata !1359), !dbg !1984
  %idxprom41 = sext i32 %inc40 to i64, !dbg !2026
  %arrayidx42 = getelementptr inbounds i8*, i8** %argv, i64 %idxprom41, !dbg !2026
  %8 = load i8*, i8** %arrayidx42, align 8, !dbg !2026, !tbaa !1361
  tail call void @llvm.dbg.value(metadata i8* %8, i64 0, metadata !1035, metadata !1359) #11, !dbg !2027
  %call.i83 = tail call i64 @strtol(i8* nocapture nonnull %8, i8** null, i32 10) #11, !dbg !2029
  %conv.i84 = trunc i64 %call.i83 to i32, !dbg !2029
  store i32 %conv.i84, i32* %d, align 4, !dbg !2030, !tbaa !1365
  br label %for.inc, !dbg !2031

for.inc:                                          ; preds = %for.body, %if.then5, %sw.bb39, %sw.bb34, %sw.bb33, %sw.bb32, %sw.bb13, %sw.bb
  %i.1 = phi i32 [ %i.086, %if.then5 ], [ %inc40, %sw.bb39 ], [ %inc35, %sw.bb34 ], [ %i.086, %sw.bb33 ], [ %i.086, %sw.bb32 ], [ %add, %sw.bb13 ], [ %inc, %sw.bb ], [ %i.086, %for.body ]
  tail call void @llvm.dbg.value(metadata i32 %i.1, i64 0, metadata !1967, metadata !1359), !dbg !1984
  %inc45 = add nsw i32 %i.1, 1, !dbg !2032
  tail call void @llvm.dbg.value(metadata i32 %inc45, i64 0, metadata !1967, metadata !1359), !dbg !1984
  tail call void @llvm.dbg.value(metadata i32 %inc45, i64 0, metadata !1967, metadata !1359), !dbg !1984
  %cmp1 = icmp slt i32 %inc45, %argc, !dbg !2034
  br i1 %cmp1, label %for.body, label %for.end, !dbg !2036, !llvm.loop !2038

for.end:                                          ; preds = %for.inc
  %9 = load i32, i32* %d, align 4, !dbg !2041, !tbaa !1365
  %cmp46 = icmp sgt i32 %9, -1, !dbg !2043
  %10 = load i32, i32* %p, align 4, !dbg !2044, !tbaa !1365
  %cmp47 = icmp slt i32 %10, 0, !dbg !2046
  %or.cond = and i1 %cmp46, %cmp47, !dbg !2047
  br i1 %or.cond, label %cleanup53, label %lor.lhs.false, !dbg !2047

lor.lhs.false:                                    ; preds = %for.end
  %cmp48 = icmp sgt i32 %10, -1, !dbg !2048
  %cmp50 = icmp slt i32 %9, 0, !dbg !2050
  %or.cond79 = and i1 %cmp50, %cmp48, !dbg !2052
  %. = zext i1 %or.cond79 to i32, !dbg !2052
  ret i32 %., !dbg !2052

cleanup53.loopexit:                               ; preds = %if.then5
  br label %cleanup53, !dbg !2053

cleanup53:                                        ; preds = %cleanup53.loopexit, %for.end, %entry
  ret i32 1, !dbg !2053
}

; Function Attrs: uwtable
define void @_Z10printUsagev() local_unnamed_addr #4 !dbg !2054 {
entry:
  %puts = tail call i32 @puts(i8* getelementptr inbounds ([23 x i8], [23 x i8]* @str, i64 0, i64 0)), !dbg !2055
  %putchar = tail call i32 @putchar(i32 10), !dbg !2056
  %puts23 = tail call i32 @puts(i8* getelementptr inbounds ([89 x i8], [89 x i8]* @str.25, i64 0, i64 0)), !dbg !2057
  %putchar24 = tail call i32 @putchar(i32 10), !dbg !2058
  %puts25 = tail call i32 @puts(i8* getelementptr inbounds ([9 x i8], [9 x i8]* @str.26, i64 0, i64 0)), !dbg !2059
  %puts26 = tail call i32 @puts(i8* getelementptr inbounds ([54 x i8], [54 x i8]* @str.27, i64 0, i64 0)), !dbg !2060
  %putchar27 = tail call i32 @putchar(i32 10), !dbg !2061
  %puts28 = tail call i32 @puts(i8* getelementptr inbounds ([58 x i8], [58 x i8]* @str.28, i64 0, i64 0)), !dbg !2062
  %puts29 = tail call i32 @puts(i8* getelementptr inbounds ([59 x i8], [59 x i8]* @str.29, i64 0, i64 0)), !dbg !2063
  %puts30 = tail call i32 @puts(i8* getelementptr inbounds ([61 x i8], [61 x i8]* @str.30, i64 0, i64 0)), !dbg !2064
  %puts31 = tail call i32 @puts(i8* getelementptr inbounds ([62 x i8], [62 x i8]* @str.31, i64 0, i64 0)), !dbg !2065
  %putchar32 = tail call i32 @putchar(i32 10), !dbg !2066
  %puts33 = tail call i32 @puts(i8* getelementptr inbounds ([35 x i8], [35 x i8]* @str.32, i64 0, i64 0)), !dbg !2067
  %puts34 = tail call i32 @puts(i8* getelementptr inbounds ([51 x i8], [51 x i8]* @str.33, i64 0, i64 0)), !dbg !2068
  %puts35 = tail call i32 @puts(i8* getelementptr inbounds ([39 x i8], [39 x i8]* @str.34, i64 0, i64 0)), !dbg !2069
  %putchar36 = tail call i32 @putchar(i32 10), !dbg !2070
  %puts37 = tail call i32 @puts(i8* getelementptr inbounds ([72 x i8], [72 x i8]* @str.35, i64 0, i64 0)), !dbg !2071
  %puts38 = tail call i32 @puts(i8* getelementptr inbounds ([70 x i8], [70 x i8]* @str.36, i64 0, i64 0)), !dbg !2072
  %putchar39 = tail call i32 @putchar(i32 10), !dbg !2073
  %putchar40 = tail call i32 @putchar(i32 10), !dbg !2074
  %puts41 = tail call i32 @puts(i8* getelementptr inbounds ([59 x i8], [59 x i8]* @str.37, i64 0, i64 0)), !dbg !2075
  %puts42 = tail call i32 @puts(i8* getelementptr inbounds ([60 x i8], [60 x i8]* @str.38, i64 0, i64 0)), !dbg !2076
  %puts43 = tail call i32 @puts(i8* getelementptr inbounds ([34 x i8], [34 x i8]* @str.39, i64 0, i64 0)), !dbg !2077
  ret void, !dbg !2078
}

; Function Attrs: uwtable
define i32 @_Z8loadDataPcRSt6vectorI6recordSaIS1_EERS0_I7latLongSaIS5_EE(i8* nocapture readonly %filename, %"class.std::vector"* dereferenceable(24) %records, %"class.std::vector.0"* dereferenceable(24) %locations) local_unnamed_addr #4 !dbg !2079 {
entry:
  %dbname = alloca [64 x i8], align 16
  %record = alloca %struct.record, align 4
  %latLong = alloca i64, align 8
  %tmpcast = bitcast i64* %latLong to %struct.latLong*
  %substr = alloca [6 x i8], align 1
  %substr96 = getelementptr inbounds [6 x i8], [6 x i8]* %substr, i64 0, i64 0
  tail call void @llvm.dbg.value(metadata i8* %filename, i64 0, metadata !2083, metadata !1359), !dbg !2152
  tail call void @llvm.dbg.value(metadata %"class.std::vector"* %records, i64 0, metadata !2084, metadata !1359), !dbg !2153
  tail call void @llvm.dbg.value(metadata %"class.std::vector.0"* %locations, i64 0, metadata !2085, metadata !1359), !dbg !2154
  tail call void @llvm.dbg.value(metadata i32 0, i64 0, metadata !2138, metadata !1359), !dbg !2155
  %0 = getelementptr inbounds [64 x i8], [64 x i8]* %dbname, i64 0, i64 0, !dbg !2156
  call void @llvm.lifetime.start(i64 64, i8* nonnull %0) #11, !dbg !2156
  tail call void @llvm.dbg.declare(metadata [64 x i8]* %dbname, metadata !2139, metadata !1359), !dbg !2157
  tail call void @llvm.dbg.value(metadata i32 0, i64 0, metadata !2143, metadata !1359), !dbg !2158
  %call = tail call %struct._IO_FILE* @fopen(i8* %filename, i8* getelementptr inbounds ([2 x i8], [2 x i8]* @.str.3, i64 0, i64 0)), !dbg !2159
  tail call void @llvm.dbg.value(metadata %struct._IO_FILE* %call, i64 0, metadata !2086, metadata !1359), !dbg !2160
  call void @llvm.dbg.value(metadata i32 0, i64 0, metadata !2143, metadata !1359), !dbg !2158
  %call191 = call i32 @feof(%struct._IO_FILE* %call) #11, !dbg !2161
  %lnot92 = icmp eq i32 %call191, 0, !dbg !2163
  br i1 %lnot92, label %while.body.lr.ph, label %while.end49, !dbg !2164

while.body.lr.ph:                                 ; preds = %entry
  %1 = getelementptr inbounds %struct.record, %struct.record* %record, i64 0, i32 0, i64 0
  %2 = bitcast i64* %latLong to i8*
  %3 = getelementptr inbounds [6 x i8], [6 x i8]* %substr, i64 0, i64 0
  %arrayidx26 = getelementptr inbounds [6 x i8], [6 x i8]* %substr, i64 0, i64 5
  %lat = bitcast i64* %latLong to float*
  %lng = getelementptr inbounds %struct.latLong, %struct.latLong* %tmpcast, i64 0, i32 1
  %_M_finish.i = getelementptr inbounds %"class.std::vector.0", %"class.std::vector.0"* %locations, i64 0, i32 0, i32 0, i32 1
  %_M_end_of_storage.i = getelementptr inbounds %"class.std::vector.0", %"class.std::vector.0"* %locations, i64 0, i32 0, i32 0, i32 2
  %_M_finish.i75 = getelementptr inbounds %"class.std::vector", %"class.std::vector"* %records, i64 0, i32 0, i32 0, i32 1
  %_M_end_of_storage.i76 = getelementptr inbounds %"class.std::vector", %"class.std::vector"* %records, i64 0, i32 0, i32 0, i32 2
  %scevgep = getelementptr inbounds %struct.record, %struct.record* %record, i64 0, i32 0, i64 28, !dbg !2164
  %scevgep97 = getelementptr inbounds %struct.record, %struct.record* %record, i64 0, i32 0, i64 33, !dbg !2164
  br label %while.body, !dbg !2164

while.body:                                       ; preds = %while.body.lr.ph, %while.end
  %recNum.093 = phi i32 [ 0, %while.body.lr.ph ], [ %recNum.183, %while.end ]
  %call2 = call i32 (%struct._IO_FILE*, i8*, ...) @fscanf(%struct._IO_FILE* %call, i8* getelementptr inbounds ([4 x i8], [4 x i8]* @.str.4, i64 0, i64 0), i8* nonnull %0), !dbg !2165
  %cmp = icmp eq i32 %call2, 1, !dbg !2167
  br i1 %cmp, label %if.end, label %if.then, !dbg !2168

if.then:                                          ; preds = %while.body
  %4 = load %struct._IO_FILE*, %struct._IO_FILE** @stderr, align 8, !dbg !2169, !tbaa !1361
  %5 = call i64 @fwrite(i8* getelementptr inbounds ([24 x i8], [24 x i8]* @.str.5, i64 0, i64 0), i64 23, i64 1, %struct._IO_FILE* %4) #12, !dbg !2171
  call void @exit(i32 0) #13, !dbg !2172
  unreachable, !dbg !2172

if.end:                                           ; preds = %while.body
  %call5 = call %struct._IO_FILE* @fopen(i8* nonnull %0, i8* getelementptr inbounds ([2 x i8], [2 x i8]* @.str.3, i64 0, i64 0)), !dbg !2173
  call void @llvm.dbg.value(metadata %struct._IO_FILE* %call5, i64 0, metadata !2137, metadata !1359), !dbg !2174
  %tobool6 = icmp eq %struct._IO_FILE* %call5, null, !dbg !2175
  br i1 %tobool6, label %if.then7, label %while.cond10.preheader, !dbg !2177

while.cond10.preheader:                           ; preds = %if.end
  call void @llvm.dbg.value(metadata i32 %recNum.093, i64 0, metadata !2143, metadata !1359), !dbg !2158
  %call1188 = call i32 @feof(%struct._IO_FILE* nonnull %call5) #11, !dbg !2178
  %lnot1389 = icmp eq i32 %call1188, 0, !dbg !2180
  br i1 %lnot1389, label %while.body14.preheader, label %while.end, !dbg !2181

while.body14.preheader:                           ; preds = %while.cond10.preheader
  br label %while.body14, !dbg !2182

if.then7:                                         ; preds = %if.end
  %puts = call i32 @puts(i8* getelementptr inbounds ([19 x i8], [19 x i8]* @str.40, i64 0, i64 0)), !dbg !2183
  call void @exit(i32 1) #13, !dbg !2185
  unreachable, !dbg !2185

while.body14:                                     ; preds = %while.body14.preheader, %cleanup.thread
  %recNum.190 = phi i32 [ %inc46, %cleanup.thread ], [ %recNum.093, %while.body14.preheader ]
  call void @llvm.lifetime.start(i64 60, i8* nonnull %1) #11, !dbg !2182
  call void @llvm.lifetime.start(i64 8, i8* nonnull %2) #11, !dbg !2186
  %call16 = call i8* @fgets(i8* nonnull %1, i32 49, %struct._IO_FILE* nonnull %call5), !dbg !2187
  %call17 = call i32 @fgetc(%struct._IO_FILE* nonnull %call5), !dbg !2188
  %call18 = call i32 @feof(%struct._IO_FILE* nonnull %call5) #11, !dbg !2189
  %tobool19 = icmp eq i32 %call18, 0, !dbg !2189
  br i1 %tobool19, label %if.end21, label %cleanup, !dbg !2191

if.end21:                                         ; preds = %while.body14
  call void @llvm.lifetime.start(i64 6, i8* nonnull %3) #11, !dbg !2192
  call void @llvm.dbg.declare(metadata [6 x i8]* %substr, metadata !2148, metadata !1359), !dbg !2193
  call void @llvm.dbg.value(metadata i32 0, i64 0, metadata !2138, metadata !1359), !dbg !2155
  call void @llvm.dbg.value(metadata i32 0, i64 0, metadata !2138, metadata !1359), !dbg !2155
  call void @llvm.memcpy.p0i8.p0i8.i64(i8* nonnull %substr96, i8* %scevgep, i64 5, i32 1, i1 false), !dbg !2194
  store i8 0, i8* %arrayidx26, align 1, !dbg !2198, !tbaa !1788
  call void @llvm.dbg.value(metadata i8* %3, i64 0, metadata !1029, metadata !1359) #11, !dbg !2199
  %call.i = call double @strtod(i8* nocapture nonnull %3, i8** null) #11, !dbg !2201
  %conv = fptrunc double %call.i to float, !dbg !2202
  store float %conv, float* %lat, align 8, !dbg !2203, !tbaa !2204
  call void @llvm.dbg.value(metadata i32 0, i64 0, metadata !2138, metadata !1359), !dbg !2155
  call void @llvm.dbg.value(metadata i32 0, i64 0, metadata !2138, metadata !1359), !dbg !2155
  call void @llvm.memcpy.p0i8.p0i8.i64(i8* nonnull %substr96, i8* %scevgep97, i64 5, i32 1, i1 false), !dbg !2206
  store i8 0, i8* %arrayidx26, align 1, !dbg !2210, !tbaa !1788
  call void @llvm.dbg.value(metadata i8* %3, i64 0, metadata !1029, metadata !1359) #11, !dbg !2211
  %call.i74 = call double @strtod(i8* nocapture nonnull %3, i8** null) #11, !dbg !2213
  %conv45 = fptrunc double %call.i74 to float, !dbg !2214
  store float %conv45, float* %lng, align 4, !dbg !2215, !tbaa !2216
  call void @llvm.dbg.value(metadata %struct.latLong* %tmpcast, i64 0, metadata !2147, metadata !1329), !dbg !2217
  call void @llvm.dbg.value(metadata %"class.std::vector.0"* %locations, i64 0, metadata !2218, metadata !1359), !dbg !2222
  call void @llvm.dbg.value(metadata %struct.latLong* %tmpcast, i64 0, metadata !2221, metadata !1359), !dbg !2224
  %6 = load %struct.latLong*, %struct.latLong** %_M_finish.i, align 8, !dbg !2225, !tbaa !2227
  %7 = load %struct.latLong*, %struct.latLong** %_M_end_of_storage.i, align 8, !dbg !2228, !tbaa !2229
  %cmp.i = icmp eq %struct.latLong* %6, %7, !dbg !2230
  br i1 %cmp.i, label %if.else.i, label %if.then.i, !dbg !2231

if.then.i:                                        ; preds = %if.end21
  call void @llvm.dbg.value(metadata %struct.latLong* %6, i64 0, metadata !2232, metadata !1359), !dbg !2240
  call void @llvm.dbg.value(metadata %struct.latLong* %tmpcast, i64 0, metadata !2239, metadata !1359), !dbg !2243
  call void @llvm.dbg.value(metadata %struct.latLong* %6, i64 0, metadata !2244, metadata !1359), !dbg !2249
  call void @llvm.dbg.value(metadata %struct.latLong* %tmpcast, i64 0, metadata !2248, metadata !1359), !dbg !2251
  %8 = bitcast %struct.latLong* %6 to i64*, !dbg !2252
  %9 = load i64, i64* %latLong, align 8, !dbg !2252
  store i64 %9, i64* %8, align 4, !dbg !2252
  %10 = load %struct.latLong*, %struct.latLong** %_M_finish.i, align 8, !dbg !2253, !tbaa !2227
  %incdec.ptr.i = getelementptr inbounds %struct.latLong, %struct.latLong* %10, i64 1, !dbg !2253
  store %struct.latLong* %incdec.ptr.i, %struct.latLong** %_M_finish.i, align 8, !dbg !2253, !tbaa !2227
  br label %_ZNSt6vectorI7latLongSaIS0_EE9push_backERKS0_.exit, !dbg !2254

if.else.i:                                        ; preds = %if.end21
  call void @_ZNSt6vectorI7latLongSaIS0_EE13_M_insert_auxEN9__gnu_cxx17__normal_iteratorIPS0_S2_EERKS0_(%"class.std::vector.0"* nonnull %locations, %struct.latLong* %6, %struct.latLong* nonnull dereferenceable(8) %tmpcast), !dbg !2255
  br label %_ZNSt6vectorI7latLongSaIS0_EE9push_backERKS0_.exit

_ZNSt6vectorI7latLongSaIS0_EE9push_backERKS0_.exit: ; preds = %if.then.i, %if.else.i
  call void @llvm.dbg.value(metadata %struct.record* %record, i64 0, metadata !2144, metadata !1329), !dbg !2257
  call void @llvm.dbg.value(metadata %"class.std::vector"* %records, i64 0, metadata !2258, metadata !1359), !dbg !2262
  call void @llvm.dbg.value(metadata %struct.record* %record, i64 0, metadata !2261, metadata !1359), !dbg !2264
  %11 = load %struct.record*, %struct.record** %_M_finish.i75, align 8, !dbg !2265, !tbaa !2267
  %12 = load %struct.record*, %struct.record** %_M_end_of_storage.i76, align 8, !dbg !2268, !tbaa !2269
  %cmp.i77 = icmp eq %struct.record* %11, %12, !dbg !2270
  br i1 %cmp.i77, label %if.else.i80, label %if.then.i79, !dbg !2271

if.then.i79:                                      ; preds = %_ZNSt6vectorI7latLongSaIS0_EE9push_backERKS0_.exit
  call void @llvm.dbg.value(metadata %struct.record* %11, i64 0, metadata !2272, metadata !1359), !dbg !2280
  call void @llvm.dbg.value(metadata %struct.record* %record, i64 0, metadata !2279, metadata !1359), !dbg !2283
  call void @llvm.dbg.value(metadata %struct.record* %11, i64 0, metadata !2284, metadata !1359) #11, !dbg !2289
  call void @llvm.dbg.value(metadata %struct.record* %record, i64 0, metadata !2288, metadata !1359) #11, !dbg !2291
  %13 = getelementptr inbounds %struct.record, %struct.record* %11, i64 0, i32 0, i64 0, !dbg !2292
  call void @llvm.memcpy.p0i8.p0i8.i64(i8* %13, i8* nonnull %1, i64 60, i32 4, i1 false) #11, !dbg !2293, !tbaa.struct !1787
  %14 = load %struct.record*, %struct.record** %_M_finish.i75, align 8, !dbg !2294, !tbaa !2267
  %incdec.ptr.i78 = getelementptr inbounds %struct.record, %struct.record* %14, i64 1, !dbg !2294
  store %struct.record* %incdec.ptr.i78, %struct.record** %_M_finish.i75, align 8, !dbg !2294, !tbaa !2267
  br label %cleanup.thread, !dbg !2295

if.else.i80:                                      ; preds = %_ZNSt6vectorI7latLongSaIS0_EE9push_backERKS0_.exit
  call void @_ZNSt6vectorI6recordSaIS0_EE13_M_insert_auxEN9__gnu_cxx17__normal_iteratorIPS0_S2_EERKS0_(%"class.std::vector"* nonnull %records, %struct.record* %11, %struct.record* nonnull dereferenceable(60) %record), !dbg !2296
  br label %cleanup.thread

cleanup.thread:                                   ; preds = %if.else.i80, %if.then.i79
  %inc46 = add nsw i32 %recNum.190, 1, !dbg !2298
  call void @llvm.dbg.value(metadata i32 %inc46, i64 0, metadata !2143, metadata !1359), !dbg !2158
  call void @llvm.lifetime.end(i64 6, i8* nonnull %3) #11, !dbg !2299
  call void @llvm.dbg.value(metadata i32 %recNum.190, i64 0, metadata !2143, metadata !1359), !dbg !2158
  call void @llvm.lifetime.end(i64 8, i8* nonnull %2) #11, !dbg !2299
  call void @llvm.lifetime.end(i64 60, i8* nonnull %1) #11, !dbg !2299
  call void @llvm.dbg.value(metadata i32 %inc46, i64 0, metadata !2143, metadata !1359), !dbg !2158
  %call11 = call i32 @feof(%struct._IO_FILE* nonnull %call5) #11, !dbg !2178
  %lnot13 = icmp eq i32 %call11, 0, !dbg !2180
  br i1 %lnot13, label %while.body14, label %while.end.loopexit, !dbg !2181

cleanup:                                          ; preds = %while.body14
  call void @llvm.dbg.value(metadata i32 undef, i64 0, metadata !2143, metadata !1359), !dbg !2158
  call void @llvm.lifetime.end(i64 8, i8* nonnull %2) #11, !dbg !2299
  call void @llvm.lifetime.end(i64 60, i8* nonnull %1) #11, !dbg !2299
  br label %while.end

while.end.loopexit:                               ; preds = %cleanup.thread
  br label %while.end, !dbg !2158

while.end:                                        ; preds = %while.end.loopexit, %while.cond10.preheader, %cleanup
  %recNum.183 = phi i32 [ %recNum.190, %cleanup ], [ %recNum.093, %while.cond10.preheader ], [ %inc46, %while.end.loopexit ]
  call void @llvm.dbg.value(metadata i32 undef, i64 0, metadata !2143, metadata !1359), !dbg !2158
  %call48 = call i32 @fclose(%struct._IO_FILE* nonnull %call5), !dbg !2300
  call void @llvm.dbg.value(metadata i32 %recNum.183, i64 0, metadata !2143, metadata !1359), !dbg !2158
  %call1 = call i32 @feof(%struct._IO_FILE* %call) #11, !dbg !2161
  %lnot = icmp eq i32 %call1, 0, !dbg !2163
  br i1 %lnot, label %while.body, label %while.end49.loopexit, !dbg !2164, !llvm.loop !2301

while.end49.loopexit:                             ; preds = %while.end
  br label %while.end49, !dbg !2304

while.end49:                                      ; preds = %while.end49.loopexit, %entry
  %recNum.0.lcssa = phi i32 [ 0, %entry ], [ %recNum.183, %while.end49.loopexit ]
  %call50 = call i32 @fclose(%struct._IO_FILE* %call), !dbg !2304
  call void @llvm.lifetime.end(i64 64, i8* nonnull %0) #11, !dbg !2305
  ret i32 %recNum.0.lcssa, !dbg !2306
}

declare i32 @cudaGetDeviceProperties(%struct.cudaDeviceProp*, i32) local_unnamed_addr #6

declare i32 @cudaThreadSynchronize() local_unnamed_addr #6

declare i32 @cudaMemGetInfo(i64*, i64*) local_unnamed_addr #6

; Function Attrs: nounwind
declare i32 @fprintf(%struct._IO_FILE* nocapture, i8* nocapture readonly, ...) local_unnamed_addr #3

; Function Attrs: noreturn nounwind
declare void @exit(i32) local_unnamed_addr #7

; Function Attrs: nounwind
declare noalias i8* @malloc(i64) local_unnamed_addr #3

declare i32 @cudaMalloc(i8**, i64) local_unnamed_addr #6

declare i32 @cudaMemcpy(i8*, i8*, i64, i32) local_unnamed_addr #6

declare i32 @cudaConfigureCall(i64, i32, i64, i32, i64, %struct.CUstream_st*) local_unnamed_addr #6

; Function Attrs: argmemonly nounwind
declare void @llvm.memcpy.p0i8.p0i8.i64(i8* nocapture writeonly, i8* nocapture readonly, i64, i32, i1) #1

; Function Attrs: nounwind uwtable
define void @_Z10findLowestRSt6vectorI6recordSaIS0_EEPfii(%"class.std::vector"* nocapture readonly dereferenceable(24) %records, float* nocapture %distances, i32 %numRecords, i32 %topN) local_unnamed_addr #0 !dbg !1718 {
entry:
  tail call void @llvm.dbg.value(metadata %"class.std::vector"* %records, i64 0, metadata !1717, metadata !1359), !dbg !2307
  tail call void @llvm.dbg.value(metadata float* %distances, i64 0, metadata !1722, metadata !1359), !dbg !2308
  tail call void @llvm.dbg.value(metadata i32 %numRecords, i64 0, metadata !1723, metadata !1359), !dbg !2309
  tail call void @llvm.dbg.value(metadata i32 %topN, i64 0, metadata !1724, metadata !1359), !dbg !2310
  tail call void @llvm.dbg.value(metadata i32 0, i64 0, metadata !1725, metadata !1359), !dbg !2311
  tail call void @llvm.dbg.value(metadata i32 0, i64 0, metadata !1725, metadata !1359), !dbg !2311
  %cmp71 = icmp sgt i32 %topN, 0, !dbg !2312
  br i1 %cmp71, label %for.cond1.preheader.lr.ph, label %for.end27, !dbg !2313

for.cond1.preheader.lr.ph:                        ; preds = %entry
  %_M_start.i = getelementptr inbounds %"class.std::vector", %"class.std::vector"* %records, i64 0, i32 0, i32 0, i32 0
  %0 = sext i32 %numRecords to i64, !dbg !2313
  %wide.trip.count77 = zext i32 %topN to i64
  %wide.trip.count = zext i32 %numRecords to i64
  %1 = add nsw i64 %wide.trip.count, -1, !dbg !2313
  br label %for.cond1.preheader, !dbg !2313

for.cond1.preheader:                              ; preds = %for.end, %for.cond1.preheader.lr.ph
  %indvars.iv75 = phi i64 [ 0, %for.cond1.preheader.lr.ph ], [ %indvars.iv.next76, %for.end ]
  tail call void @llvm.dbg.value(metadata i32 undef, i64 0, metadata !1726, metadata !1359), !dbg !2314
  tail call void @llvm.dbg.value(metadata i32 undef, i64 0, metadata !1728, metadata !1359), !dbg !2315
  %2 = sub i64 %1, %indvars.iv75, !dbg !2316
  %cmp268 = icmp slt i64 %indvars.iv75, %0, !dbg !2316
  %3 = trunc i64 %indvars.iv75 to i32, !dbg !2317
  br i1 %cmp268, label %for.body3.preheader, label %for.end, !dbg !2317

for.body3.preheader:                              ; preds = %for.cond1.preheader
  %4 = sub i64 %wide.trip.count, %indvars.iv75, !dbg !2316
  %xtraiter = and i64 %4, 3, !dbg !2318
  %lcmp.mod = icmp eq i64 %xtraiter, 0, !dbg !2318
  br i1 %lcmp.mod, label %for.body3.prol.loopexit, label %for.body3.prol.preheader, !dbg !2318

for.body3.prol.preheader:                         ; preds = %for.body3.preheader
  br label %for.body3.prol, !dbg !2318

for.body3.prol:                                   ; preds = %for.body3.prol, %for.body3.prol.preheader
  %indvars.iv73.prol = phi i64 [ %indvars.iv.next74.prol, %for.body3.prol ], [ %indvars.iv75, %for.body3.prol.preheader ]
  %minLoc.069.prol = phi i32 [ %minLoc.1.prol, %for.body3.prol ], [ %3, %for.body3.prol.preheader ]
  %prol.iter = phi i64 [ %prol.iter.sub, %for.body3.prol ], [ %xtraiter, %for.body3.prol.preheader ]
  %arrayidx.prol = getelementptr inbounds float, float* %distances, i64 %indvars.iv73.prol, !dbg !2318
  %5 = load float, float* %arrayidx.prol, align 4, !dbg !2318, !tbaa !1368
  tail call void @llvm.dbg.value(metadata float %5, i64 0, metadata !1727, metadata !1359), !dbg !2319
  %idxprom4.prol = sext i32 %minLoc.069.prol to i64, !dbg !2320
  %arrayidx5.prol = getelementptr inbounds float, float* %distances, i64 %idxprom4.prol, !dbg !2320
  %6 = load float, float* %arrayidx5.prol, align 4, !dbg !2320, !tbaa !1368
  %cmp6.prol = fcmp olt float %5, %6, !dbg !2321
  tail call void @llvm.dbg.value(metadata i32 undef, i64 0, metadata !1728, metadata !1359), !dbg !2315
  %7 = trunc i64 %indvars.iv73.prol to i32, !dbg !2322
  %minLoc.1.prol = select i1 %cmp6.prol, i32 %7, i32 %minLoc.069.prol, !dbg !2322
  tail call void @llvm.dbg.value(metadata i32 %minLoc.1.prol, i64 0, metadata !1728, metadata !1359), !dbg !2315
  %indvars.iv.next74.prol = add nuw nsw i64 %indvars.iv73.prol, 1, !dbg !2323
  tail call void @llvm.dbg.value(metadata i32 %minLoc.1.prol, i64 0, metadata !1728, metadata !1359), !dbg !2315
  %prol.iter.sub = add i64 %prol.iter, -1, !dbg !2317
  %prol.iter.cmp = icmp eq i64 %prol.iter.sub, 0, !dbg !2317
  br i1 %prol.iter.cmp, label %for.body3.prol.loopexit.unr-lcssa, label %for.body3.prol, !dbg !2317, !llvm.loop !2324

for.body3.prol.loopexit.unr-lcssa:                ; preds = %for.body3.prol
  br label %for.body3.prol.loopexit, !dbg !2318

for.body3.prol.loopexit:                          ; preds = %for.body3.preheader, %for.body3.prol.loopexit.unr-lcssa
  %minLoc.1.lcssa.unr = phi i32 [ undef, %for.body3.preheader ], [ %minLoc.1.prol, %for.body3.prol.loopexit.unr-lcssa ]
  %indvars.iv73.unr = phi i64 [ %indvars.iv75, %for.body3.preheader ], [ %indvars.iv.next74.prol, %for.body3.prol.loopexit.unr-lcssa ]
  %minLoc.069.unr = phi i32 [ %3, %for.body3.preheader ], [ %minLoc.1.prol, %for.body3.prol.loopexit.unr-lcssa ]
  %8 = icmp ult i64 %2, 3, !dbg !2318
  br i1 %8, label %for.end.loopexit, label %for.body3.preheader.new, !dbg !2318

for.body3.preheader.new:                          ; preds = %for.body3.prol.loopexit
  br label %for.body3, !dbg !2318

for.body3:                                        ; preds = %for.body3, %for.body3.preheader.new
  %indvars.iv73 = phi i64 [ %indvars.iv73.unr, %for.body3.preheader.new ], [ %indvars.iv.next74.3, %for.body3 ]
  %minLoc.069 = phi i32 [ %minLoc.069.unr, %for.body3.preheader.new ], [ %minLoc.1.3, %for.body3 ]
  %arrayidx = getelementptr inbounds float, float* %distances, i64 %indvars.iv73, !dbg !2318
  %9 = load float, float* %arrayidx, align 4, !dbg !2318, !tbaa !1368
  tail call void @llvm.dbg.value(metadata float %9, i64 0, metadata !1727, metadata !1359), !dbg !2319
  %idxprom4 = sext i32 %minLoc.069 to i64, !dbg !2320
  %arrayidx5 = getelementptr inbounds float, float* %distances, i64 %idxprom4, !dbg !2320
  %10 = load float, float* %arrayidx5, align 4, !dbg !2320, !tbaa !1368
  %cmp6 = fcmp olt float %9, %10, !dbg !2321
  tail call void @llvm.dbg.value(metadata i32 undef, i64 0, metadata !1728, metadata !1359), !dbg !2315
  %11 = trunc i64 %indvars.iv73 to i32, !dbg !2322
  %minLoc.1 = select i1 %cmp6, i32 %11, i32 %minLoc.069, !dbg !2322
  tail call void @llvm.dbg.value(metadata i32 %minLoc.1, i64 0, metadata !1728, metadata !1359), !dbg !2315
  %indvars.iv.next74 = add nuw nsw i64 %indvars.iv73, 1, !dbg !2323
  tail call void @llvm.dbg.value(metadata i32 %minLoc.1, i64 0, metadata !1728, metadata !1359), !dbg !2315
  %arrayidx.1 = getelementptr inbounds float, float* %distances, i64 %indvars.iv.next74, !dbg !2318
  %12 = load float, float* %arrayidx.1, align 4, !dbg !2318, !tbaa !1368
  tail call void @llvm.dbg.value(metadata float %9, i64 0, metadata !1727, metadata !1359), !dbg !2319
  %idxprom4.1 = sext i32 %minLoc.1 to i64, !dbg !2320
  %arrayidx5.1 = getelementptr inbounds float, float* %distances, i64 %idxprom4.1, !dbg !2320
  %13 = load float, float* %arrayidx5.1, align 4, !dbg !2320, !tbaa !1368
  %cmp6.1 = fcmp olt float %12, %13, !dbg !2321
  tail call void @llvm.dbg.value(metadata i32 undef, i64 0, metadata !1728, metadata !1359), !dbg !2315
  %14 = trunc i64 %indvars.iv.next74 to i32, !dbg !2322
  %minLoc.1.1 = select i1 %cmp6.1, i32 %14, i32 %minLoc.1, !dbg !2322
  tail call void @llvm.dbg.value(metadata i32 %minLoc.1, i64 0, metadata !1728, metadata !1359), !dbg !2315
  %indvars.iv.next74.1 = add nsw i64 %indvars.iv73, 2, !dbg !2323
  tail call void @llvm.dbg.value(metadata i32 %minLoc.1, i64 0, metadata !1728, metadata !1359), !dbg !2315
  %arrayidx.2 = getelementptr inbounds float, float* %distances, i64 %indvars.iv.next74.1, !dbg !2318
  %15 = load float, float* %arrayidx.2, align 4, !dbg !2318, !tbaa !1368
  tail call void @llvm.dbg.value(metadata float %9, i64 0, metadata !1727, metadata !1359), !dbg !2319
  %idxprom4.2 = sext i32 %minLoc.1.1 to i64, !dbg !2320
  %arrayidx5.2 = getelementptr inbounds float, float* %distances, i64 %idxprom4.2, !dbg !2320
  %16 = load float, float* %arrayidx5.2, align 4, !dbg !2320, !tbaa !1368
  %cmp6.2 = fcmp olt float %15, %16, !dbg !2321
  tail call void @llvm.dbg.value(metadata i32 undef, i64 0, metadata !1728, metadata !1359), !dbg !2315
  %17 = trunc i64 %indvars.iv.next74.1 to i32, !dbg !2322
  %minLoc.1.2 = select i1 %cmp6.2, i32 %17, i32 %minLoc.1.1, !dbg !2322
  tail call void @llvm.dbg.value(metadata i32 %minLoc.1, i64 0, metadata !1728, metadata !1359), !dbg !2315
  %indvars.iv.next74.2 = add nsw i64 %indvars.iv73, 3, !dbg !2323
  tail call void @llvm.dbg.value(metadata i32 %minLoc.1, i64 0, metadata !1728, metadata !1359), !dbg !2315
  %arrayidx.3 = getelementptr inbounds float, float* %distances, i64 %indvars.iv.next74.2, !dbg !2318
  %18 = load float, float* %arrayidx.3, align 4, !dbg !2318, !tbaa !1368
  tail call void @llvm.dbg.value(metadata float %9, i64 0, metadata !1727, metadata !1359), !dbg !2319
  %idxprom4.3 = sext i32 %minLoc.1.2 to i64, !dbg !2320
  %arrayidx5.3 = getelementptr inbounds float, float* %distances, i64 %idxprom4.3, !dbg !2320
  %19 = load float, float* %arrayidx5.3, align 4, !dbg !2320, !tbaa !1368
  %cmp6.3 = fcmp olt float %18, %19, !dbg !2321
  tail call void @llvm.dbg.value(metadata i32 undef, i64 0, metadata !1728, metadata !1359), !dbg !2315
  %20 = trunc i64 %indvars.iv.next74.2 to i32, !dbg !2322
  %minLoc.1.3 = select i1 %cmp6.3, i32 %20, i32 %minLoc.1.2, !dbg !2322
  tail call void @llvm.dbg.value(metadata i32 %minLoc.1, i64 0, metadata !1728, metadata !1359), !dbg !2315
  %indvars.iv.next74.3 = add nsw i64 %indvars.iv73, 4, !dbg !2323
  tail call void @llvm.dbg.value(metadata i32 %minLoc.1, i64 0, metadata !1728, metadata !1359), !dbg !2315
  %exitcond.3 = icmp eq i64 %indvars.iv.next74.3, %wide.trip.count, !dbg !2316
  br i1 %exitcond.3, label %for.end.loopexit.unr-lcssa, label %for.body3, !dbg !2317, !llvm.loop !1768

for.end.loopexit.unr-lcssa:                       ; preds = %for.body3
  br label %for.end.loopexit, !dbg !2325

for.end.loopexit:                                 ; preds = %for.body3.prol.loopexit, %for.end.loopexit.unr-lcssa
  %minLoc.1.lcssa = phi i32 [ %minLoc.1.lcssa.unr, %for.body3.prol.loopexit ], [ %minLoc.1.3, %for.end.loopexit.unr-lcssa ]
  br label %for.end, !dbg !2325

for.end:                                          ; preds = %for.end.loopexit, %for.cond1.preheader
  %minLoc.0.lcssa = phi i32 [ %3, %for.cond1.preheader ], [ %minLoc.1.lcssa, %for.end.loopexit ]
  tail call void @llvm.dbg.value(metadata %"class.std::vector"* %records, i64 0, metadata !1774, metadata !1359), !dbg !2325
  tail call void @llvm.dbg.value(metadata i64 %indvars.iv75, i64 0, metadata !1775, metadata !1359), !dbg !2327
  %21 = load %struct.record*, %struct.record** %_M_start.i, align 8, !dbg !2328, !tbaa !1745
  %conv7 = sext i32 %minLoc.0.lcssa to i64, !dbg !2329
  tail call void @llvm.dbg.value(metadata %"class.std::vector"* %records, i64 0, metadata !1774, metadata !1359), !dbg !2330
  tail call void @llvm.dbg.value(metadata i64 %conv7, i64 0, metadata !1775, metadata !1359), !dbg !2332
  tail call void @llvm.dbg.value(metadata %"class.std::vector"* %records, i64 0, metadata !1774, metadata !1359), !dbg !2333
  tail call void @llvm.dbg.value(metadata i64 %indvars.iv75, i64 0, metadata !1775, metadata !1359), !dbg !2335
  %22 = getelementptr inbounds %struct.record, %struct.record* %21, i64 %indvars.iv75, i32 0, i64 0, !dbg !2336
  %23 = getelementptr inbounds %struct.record, %struct.record* %21, i64 %conv7, i32 0, i64 0, !dbg !2336
  tail call void @llvm.memcpy.p0i8.p0i8.i64(i8* %22, i8* %23, i64 60, i32 4, i1 false), !dbg !2336, !tbaa.struct !1787
  tail call void @llvm.dbg.value(metadata %"class.std::vector"* %records, i64 0, metadata !1774, metadata !1359), !dbg !2337
  tail call void @llvm.dbg.value(metadata i64 %conv7, i64 0, metadata !1775, metadata !1359), !dbg !2339
  %24 = load %struct.record*, %struct.record** %_M_start.i, align 8, !dbg !2340, !tbaa !1745
  %25 = getelementptr inbounds %struct.record, %struct.record* %24, i64 %conv7, i32 0, i64 0, !dbg !2341
  tail call void @llvm.memcpy.p0i8.p0i8.i64(i8* %25, i8* %22, i64 60, i32 4, i1 false), !dbg !2341, !tbaa.struct !1787
  %arrayidx14 = getelementptr inbounds float, float* %distances, i64 %indvars.iv75, !dbg !2342
  %26 = bitcast float* %arrayidx14 to i32*, !dbg !2342
  %27 = load i32, i32* %26, align 4, !dbg !2342, !tbaa !1368
  %arrayidx16 = getelementptr inbounds float, float* %distances, i64 %conv7, !dbg !2343
  %28 = bitcast float* %arrayidx16 to i32*, !dbg !2343
  %29 = load i32, i32* %28, align 4, !dbg !2343, !tbaa !1368
  store i32 %29, i32* %26, align 4, !dbg !2344, !tbaa !1368
  store i32 %27, i32* %28, align 4, !dbg !2345, !tbaa !1368
  %30 = load i32, i32* %26, align 4, !dbg !2346, !tbaa !1368
  tail call void @llvm.dbg.value(metadata %"class.std::vector"* %records, i64 0, metadata !1774, metadata !1359), !dbg !2347
  tail call void @llvm.dbg.value(metadata i64 %indvars.iv75, i64 0, metadata !1775, metadata !1359), !dbg !2349
  %31 = load %struct.record*, %struct.record** %_M_start.i, align 8, !dbg !2350, !tbaa !1745
  %distance = getelementptr inbounds %struct.record, %struct.record* %31, i64 %indvars.iv75, i32 1, !dbg !2351
  %32 = bitcast float* %distance to i32*, !dbg !2352
  store i32 %30, i32* %32, align 4, !dbg !2352, !tbaa !1802
  %indvars.iv.next76 = add nuw nsw i64 %indvars.iv75, 1, !dbg !2353
  %exitcond78 = icmp eq i64 %indvars.iv.next76, %wide.trip.count77, !dbg !2312
  br i1 %exitcond78, label %for.end27.loopexit, label %for.cond1.preheader, !dbg !2313, !llvm.loop !1806

for.end27.loopexit:                               ; preds = %for.end
  br label %for.end27, !dbg !2354

for.end27:                                        ; preds = %for.end27.loopexit, %entry
  ret void, !dbg !2354
}

; Function Attrs: nounwind
declare i32 @printf(i8* nocapture readonly, ...) local_unnamed_addr #3

; Function Attrs: nounwind
declare void @free(i8* nocapture) local_unnamed_addr #3

declare i32 @cudaFree(i8*) local_unnamed_addr #6

; Function Attrs: nounwind
declare noalias %struct._IO_FILE* @fopen(i8* nocapture readonly, i8* nocapture readonly) local_unnamed_addr #3

; Function Attrs: nounwind
declare i32 @feof(%struct._IO_FILE* nocapture) local_unnamed_addr #3

; Function Attrs: nounwind
declare i32 @fscanf(%struct._IO_FILE* nocapture, i8* nocapture readonly, ...) local_unnamed_addr #3

; Function Attrs: nounwind
declare i8* @fgets(i8*, i32, %struct._IO_FILE* nocapture) local_unnamed_addr #3

; Function Attrs: nounwind
declare i32 @fgetc(%struct._IO_FILE* nocapture) local_unnamed_addr #3

; Function Attrs: nounwind
declare i32 @fclose(%struct._IO_FILE* nocapture) local_unnamed_addr #3

; Function Attrs: nounwind
declare i8* @strncpy(i8*, i8* nocapture readonly, i64) local_unnamed_addr #3

; Function Attrs: nounwind
declare double @strtod(i8* readonly, i8** nocapture) local_unnamed_addr #3

; Function Attrs: nounwind
declare i64 @strtol(i8* readonly, i8** nocapture, i32) local_unnamed_addr #3

; Function Attrs: nobuiltin nounwind
declare void @_ZdlPv(i8*) local_unnamed_addr #8

; Function Attrs: uwtable
define linkonce_odr void @_ZNSt6vectorI7latLongSaIS0_EE13_M_insert_auxEN9__gnu_cxx17__normal_iteratorIPS0_S2_EERKS0_(%"class.std::vector.0"* %this, %struct.latLong* %__position.coerce, %struct.latLong* dereferenceable(8) %__x) local_unnamed_addr #4 comdat align 2 personality i8* bitcast (i32 (...)* @__gxx_personality_v0 to i8*) !dbg !2355 {
entry:
  %0 = ptrtoint %struct.latLong* %__position.coerce to i64
  tail call void @llvm.dbg.value(metadata %"class.std::vector.0"* %this, i64 0, metadata !2358, metadata !1359), !dbg !2370
  tail call void @llvm.dbg.value(metadata %struct.latLong* %__x, i64 0, metadata !2360, metadata !1359), !dbg !2371
  %_M_finish = getelementptr inbounds %"class.std::vector.0", %"class.std::vector.0"* %this, i64 0, i32 0, i32 0, i32 1, !dbg !2372
  %1 = load %struct.latLong*, %struct.latLong** %_M_finish, align 8, !dbg !2372, !tbaa !2227
  %_M_end_of_storage = getelementptr inbounds %"class.std::vector.0", %"class.std::vector.0"* %this, i64 0, i32 0, i32 0, i32 2, !dbg !2373
  %2 = load %struct.latLong*, %struct.latLong** %_M_end_of_storage, align 8, !dbg !2373, !tbaa !2229
  %cmp = icmp eq %struct.latLong* %1, %2, !dbg !2374
  br i1 %cmp, label %if.else, label %if.then, !dbg !2375

if.then:                                          ; preds = %entry
  %add.ptr = getelementptr inbounds %struct.latLong, %struct.latLong* %1, i64 -1, !dbg !2376
  tail call void @llvm.dbg.value(metadata %struct.latLong* %1, i64 0, metadata !2232, metadata !1359), !dbg !2377
  tail call void @llvm.dbg.value(metadata %struct.latLong* %add.ptr, i64 0, metadata !2239, metadata !1359), !dbg !2379
  tail call void @llvm.dbg.value(metadata %struct.latLong* %1, i64 0, metadata !2244, metadata !1359), !dbg !2380
  tail call void @llvm.dbg.value(metadata %struct.latLong* %add.ptr, i64 0, metadata !2248, metadata !1359), !dbg !2382
  %3 = bitcast %struct.latLong* %add.ptr to i64*, !dbg !2383
  %4 = bitcast %struct.latLong* %1 to i64*, !dbg !2383
  %5 = load i64, i64* %3, align 4, !dbg !2383
  store i64 %5, i64* %4, align 4, !dbg !2383
  %6 = load %struct.latLong*, %struct.latLong** %_M_finish, align 8, !dbg !2384, !tbaa !2227
  %incdec.ptr = getelementptr inbounds %struct.latLong, %struct.latLong* %6, i64 1, !dbg !2384
  store %struct.latLong* %incdec.ptr, %struct.latLong** %_M_finish, align 8, !dbg !2384, !tbaa !2227
  %7 = bitcast %struct.latLong* %__x to i64*, !dbg !2385
  %8 = load i64, i64* %7, align 4, !dbg !2385
  tail call void @llvm.dbg.value(metadata %"class.__gnu_cxx::__normal_iterator"* undef, i64 0, metadata !2359, metadata !1329), !dbg !2386
  %add.ptr12 = getelementptr inbounds %struct.latLong, %struct.latLong* %6, i64 -1, !dbg !2387
  tail call void @llvm.dbg.value(metadata %struct.latLong* %__position.coerce, i64 0, metadata !2388, metadata !1359), !dbg !2399
  tail call void @llvm.dbg.value(metadata %struct.latLong* %add.ptr12, i64 0, metadata !2397, metadata !1359), !dbg !2402
  tail call void @llvm.dbg.value(metadata %struct.latLong* %6, i64 0, metadata !2398, metadata !1359), !dbg !2403
  tail call void @llvm.dbg.value(metadata %struct.latLong* %__position.coerce, i64 0, metadata !2404, metadata !1359), !dbg !2411
  tail call void @llvm.dbg.value(metadata %struct.latLong* %add.ptr12, i64 0, metadata !2409, metadata !1359), !dbg !2413
  tail call void @llvm.dbg.value(metadata %struct.latLong* %6, i64 0, metadata !2410, metadata !1359), !dbg !2414
  tail call void @llvm.dbg.value(metadata %struct.latLong* %__position.coerce, i64 0, metadata !2415, metadata !1359), !dbg !2422
  tail call void @llvm.dbg.value(metadata %struct.latLong* %add.ptr12, i64 0, metadata !2418, metadata !1359), !dbg !2424
  tail call void @llvm.dbg.value(metadata %struct.latLong* %6, i64 0, metadata !2419, metadata !1359), !dbg !2425
  tail call void @llvm.dbg.value(metadata i8 1, i64 0, metadata !2420, metadata !1359), !dbg !2426
  tail call void @llvm.dbg.value(metadata %struct.latLong* %__position.coerce, i64 0, metadata !2427, metadata !1359) #11, !dbg !2452
  tail call void @llvm.dbg.value(metadata %struct.latLong* %add.ptr12, i64 0, metadata !2448, metadata !1359) #11, !dbg !2454
  tail call void @llvm.dbg.value(metadata %struct.latLong* %6, i64 0, metadata !2449, metadata !1359) #11, !dbg !2455
  %sub.ptr.lhs.cast.i.i.i.i = ptrtoint %struct.latLong* %add.ptr12 to i64, !dbg !2456
  %sub.ptr.sub.i.i.i.i = sub i64 %sub.ptr.lhs.cast.i.i.i.i, %0, !dbg !2456
  %sub.ptr.div.i.i.i.i = ashr exact i64 %sub.ptr.sub.i.i.i.i, 3, !dbg !2456
  tail call void @llvm.dbg.value(metadata i64 %sub.ptr.div.i.i.i.i, i64 0, metadata !2450, metadata !1359) #11, !dbg !2457
  %tobool.i.i.i.i = icmp eq i64 %sub.ptr.div.i.i.i.i, 0, !dbg !2458
  br i1 %tobool.i.i.i.i, label %_ZSt13copy_backwardIP7latLongS1_ET0_T_S3_S2_.exit, label %if.then.i.i.i.i, !dbg !2460

if.then.i.i.i.i:                                  ; preds = %if.then
  %idx.neg.i.i.i.i = sub nsw i64 0, %sub.ptr.div.i.i.i.i, !dbg !2461
  %.pre.i.i.i.i = getelementptr inbounds %struct.latLong, %struct.latLong* %6, i64 %idx.neg.i.i.i.i
  %9 = bitcast %struct.latLong* %.pre.i.i.i.i to i8*, !dbg !2462
  %10 = bitcast %struct.latLong* %__position.coerce to i8*, !dbg !2462
  tail call void @llvm.memmove.p0i8.p0i8.i64(i8* %9, i8* %10, i64 %sub.ptr.sub.i.i.i.i, i32 4, i1 false) #11, !dbg !2462
  br label %_ZSt13copy_backwardIP7latLongS1_ET0_T_S3_S2_.exit, !dbg !2462

_ZSt13copy_backwardIP7latLongS1_ET0_T_S3_S2_.exit: ; preds = %if.then, %if.then.i.i.i.i
  tail call void @llvm.dbg.value(metadata %"class.__gnu_cxx::__normal_iterator"* undef, i64 0, metadata !2359, metadata !1329), !dbg !2386
  %11 = bitcast %struct.latLong* %__position.coerce to i64*, !dbg !2463
  store i64 %8, i64* %11, align 4, !dbg !2463
  br label %if.end70, !dbg !2464

if.else:                                          ; preds = %entry
  %12 = ptrtoint %struct.latLong* %1 to i64, !dbg !2375
  tail call void @llvm.dbg.value(metadata %"class.std::vector.0"* %this, i64 0, metadata !2465, metadata !1359), !dbg !2472
  tail call void @llvm.dbg.value(metadata i64 1, i64 0, metadata !2468, metadata !1359), !dbg !2474
  tail call void @llvm.dbg.value(metadata %"class.std::vector.0"* %this, i64 0, metadata !2475, metadata !1359), !dbg !2478
  %13 = bitcast %struct.latLong** %_M_finish to i64*, !dbg !2482
  %14 = bitcast %"class.std::vector.0"* %this to i64*, !dbg !2483
  %15 = load i64, i64* %14, align 8, !dbg !2483, !tbaa !1361
  %sub.ptr.sub.i21.i = sub i64 %12, %15, !dbg !2484
  %sub.ptr.div.i22.i = ashr exact i64 %sub.ptr.sub.i21.i, 3, !dbg !2484
  tail call void @llvm.dbg.value(metadata i64 1, i64 0, metadata !2468, metadata !1359), !dbg !2474
  tail call void @llvm.dbg.value(metadata %"class.std::vector.0"* %this, i64 0, metadata !2475, metadata !1359), !dbg !2485
  tail call void @llvm.dbg.value(metadata %"class.std::vector.0"* %this, i64 0, metadata !2475, metadata !1359), !dbg !2487
  %cmp.i.i113 = icmp eq i64 %sub.ptr.div.i22.i, 0, !dbg !2490
  %.sroa.speculated.i = select i1 %cmp.i.i113, i64 1, i64 %sub.ptr.div.i22.i, !dbg !2504
  %add.i = add nsw i64 %.sroa.speculated.i, %sub.ptr.div.i22.i, !dbg !2505
  tail call void @llvm.dbg.value(metadata i64 %add.i, i64 0, metadata !2470, metadata !1359), !dbg !2506
  tail call void @llvm.dbg.value(metadata %"class.std::vector.0"* %this, i64 0, metadata !2475, metadata !1359), !dbg !2507
  %cmp7.i = icmp ult i64 %add.i, %sub.ptr.div.i22.i, !dbg !2509
  %cmp9.i = icmp ugt i64 %add.i, 2305843009213693951, !dbg !2510
  %or.cond.i = or i1 %cmp7.i, %cmp9.i, !dbg !2511
  %cond.i114 = select i1 %or.cond.i, i64 2305843009213693951, i64 %add.i, !dbg !2511
  tail call void @llvm.dbg.value(metadata i64 %cond.i114, i64 0, metadata !2364, metadata !1359), !dbg !2512
  tail call void @llvm.dbg.value(metadata %"class.std::vector.0"* %this, i64 0, metadata !2513, metadata !1359), !dbg !2516
  tail call void @llvm.dbg.value(metadata %"class.__gnu_cxx::__normal_iterator"* undef, i64 0, metadata !2518, metadata !1359), !dbg !2523
  %16 = getelementptr inbounds %"class.std::vector.0", %"class.std::vector.0"* %this, i64 0, i32 0, i32 0, i32 0, !dbg !2525
  tail call void @llvm.dbg.value(metadata %"class.__gnu_cxx::__normal_iterator"* undef, i64 0, metadata !2359, metadata !1329), !dbg !2386
  tail call void @llvm.dbg.value(metadata %"class.__gnu_cxx::__normal_iterator"* undef, i64 0, metadata !2526, metadata !1359), !dbg !2533
  tail call void @llvm.dbg.value(metadata %"class.__gnu_cxx::__normal_iterator"* undef, i64 0, metadata !2532, metadata !1359), !dbg !2536
  %sub.ptr.sub.i = sub i64 %0, %15, !dbg !2537
  %sub.ptr.div.i = ashr exact i64 %sub.ptr.sub.i, 3, !dbg !2537
  tail call void @llvm.dbg.value(metadata i64 %sub.ptr.div.i, i64 0, metadata !2367, metadata !1359), !dbg !2538
  tail call void @llvm.dbg.value(metadata i64 %cond.i114, i64 0, metadata !2539, metadata !1359), !dbg !2543
  %cmp.i = icmp eq i64 %cond.i114, 0, !dbg !2545
  %17 = inttoptr i64 %15 to %struct.latLong*, !dbg !2546
  br i1 %cmp.i, label %invoke.cont, label %cond.true.i, !dbg !2546

cond.true.i:                                      ; preds = %if.else
  tail call void @llvm.dbg.value(metadata i64 %cond.i114, i64 0, metadata !2547, metadata !1359), !dbg !2552
  tail call void @llvm.dbg.value(metadata i8* null, i64 0, metadata !2551, metadata !1359), !dbg !2555
  %cmp.i.i = icmp ugt i64 %cond.i114, 2305843009213693951, !dbg !2556
  br i1 %cmp.i.i, label %if.then.i.i, label %_ZN9__gnu_cxx13new_allocatorI7latLongE8allocateEmPKv.exit.i, !dbg !2558

if.then.i.i:                                      ; preds = %cond.true.i
  tail call void @_ZSt17__throw_bad_allocv() #14, !dbg !2559
  unreachable, !dbg !2559

_ZN9__gnu_cxx13new_allocatorI7latLongE8allocateEmPKv.exit.i: ; preds = %cond.true.i
  %mul.i.i = shl i64 %cond.i114, 3, !dbg !2560
  %call2.i.i = tail call i8* @_Znwm(i64 %mul.i.i), !dbg !2561
  %18 = bitcast i8* %call2.i.i to %struct.latLong*, !dbg !2562
  %.pre = load %struct.latLong*, %struct.latLong** %16, align 8, !tbaa !1656
  br label %invoke.cont, !dbg !2563

invoke.cont:                                      ; preds = %_ZN9__gnu_cxx13new_allocatorI7latLongE8allocateEmPKv.exit.i, %if.else
  %19 = phi %struct.latLong* [ %.pre, %_ZN9__gnu_cxx13new_allocatorI7latLongE8allocateEmPKv.exit.i ], [ %17, %if.else ]
  %20 = phi i8* [ %call2.i.i, %_ZN9__gnu_cxx13new_allocatorI7latLongE8allocateEmPKv.exit.i ], [ null, %if.else ], !dbg !2564
  %cond.i = phi %struct.latLong* [ %18, %_ZN9__gnu_cxx13new_allocatorI7latLongE8allocateEmPKv.exit.i ], [ null, %if.else ], !dbg !2564
  tail call void @llvm.dbg.value(metadata %struct.latLong* %cond.i, i64 0, metadata !2368, metadata !1359), !dbg !2566
  tail call void @llvm.dbg.value(metadata %struct.latLong* %cond.i, i64 0, metadata !2369, metadata !1359), !dbg !2567
  %add.ptr24 = getelementptr inbounds %struct.latLong, %struct.latLong* %cond.i, i64 %sub.ptr.div.i, !dbg !2568
  tail call void @llvm.dbg.value(metadata %struct.latLong* %add.ptr24, i64 0, metadata !2232, metadata !1359), !dbg !2570
  tail call void @llvm.dbg.value(metadata %struct.latLong* %__x, i64 0, metadata !2239, metadata !1359), !dbg !2572
  tail call void @llvm.dbg.value(metadata %struct.latLong* %add.ptr24, i64 0, metadata !2244, metadata !1359), !dbg !2573
  tail call void @llvm.dbg.value(metadata %struct.latLong* %__x, i64 0, metadata !2248, metadata !1359), !dbg !2575
  %21 = bitcast %struct.latLong* %__x to i64*, !dbg !2576
  %22 = bitcast %struct.latLong* %add.ptr24 to i64*, !dbg !2576
  %23 = load i64, i64* %21, align 4, !dbg !2576
  store i64 %23, i64* %22, align 4, !dbg !2576
  tail call void @llvm.dbg.value(metadata %struct.latLong* null, i64 0, metadata !2369, metadata !1359), !dbg !2567
  tail call void @llvm.dbg.value(metadata %"class.__gnu_cxx::__normal_iterator"* undef, i64 0, metadata !2359, metadata !1329), !dbg !2386
  tail call void @llvm.dbg.value(metadata %struct.latLong* %19, i64 0, metadata !2577, metadata !1359), !dbg !2590
  tail call void @llvm.dbg.value(metadata %struct.latLong* %__position.coerce, i64 0, metadata !2587, metadata !1359), !dbg !2592
  tail call void @llvm.dbg.value(metadata %struct.latLong* %cond.i, i64 0, metadata !2588, metadata !1359), !dbg !2593
  tail call void @llvm.dbg.value(metadata %struct.latLong* %19, i64 0, metadata !2594, metadata !1359), !dbg !2601
  tail call void @llvm.dbg.value(metadata %struct.latLong* %__position.coerce, i64 0, metadata !2598, metadata !1359), !dbg !2603
  tail call void @llvm.dbg.value(metadata %struct.latLong* %cond.i, i64 0, metadata !2599, metadata !1359), !dbg !2604
  tail call void @llvm.dbg.value(metadata %struct.latLong* %19, i64 0, metadata !2605, metadata !1359), !dbg !2611
  tail call void @llvm.dbg.value(metadata %struct.latLong* %__position.coerce, i64 0, metadata !2609, metadata !1359), !dbg !2613
  tail call void @llvm.dbg.value(metadata %struct.latLong* %cond.i, i64 0, metadata !2610, metadata !1359), !dbg !2614
  tail call void @llvm.dbg.value(metadata %struct.latLong* %19, i64 0, metadata !2615, metadata !1359), !dbg !2624
  tail call void @llvm.dbg.value(metadata %struct.latLong* %__position.coerce, i64 0, metadata !2622, metadata !1359), !dbg !2626
  tail call void @llvm.dbg.value(metadata %struct.latLong* %cond.i, i64 0, metadata !2623, metadata !1359), !dbg !2627
  tail call void @llvm.dbg.value(metadata %struct.latLong* %19, i64 0, metadata !2628, metadata !1359), !dbg !2636
  tail call void @llvm.dbg.value(metadata %struct.latLong* %__position.coerce, i64 0, metadata !2634, metadata !1359), !dbg !2638
  tail call void @llvm.dbg.value(metadata %struct.latLong* %cond.i, i64 0, metadata !2635, metadata !1359), !dbg !2639
  tail call void @llvm.dbg.value(metadata %struct.latLong* %19, i64 0, metadata !2640, metadata !1359), !dbg !2646
  tail call void @llvm.dbg.value(metadata %struct.latLong* %__position.coerce, i64 0, metadata !2644, metadata !1359), !dbg !2648
  tail call void @llvm.dbg.value(metadata %struct.latLong* %cond.i, i64 0, metadata !2645, metadata !1359), !dbg !2649
  tail call void @llvm.dbg.value(metadata %struct.latLong* %19, i64 0, metadata !2650, metadata !1359), !dbg !2656
  tail call void @llvm.dbg.value(metadata %struct.latLong* %__position.coerce, i64 0, metadata !2653, metadata !1359), !dbg !2659
  tail call void @llvm.dbg.value(metadata %struct.latLong* %cond.i, i64 0, metadata !2654, metadata !1359), !dbg !2660
  tail call void @llvm.dbg.value(metadata i8 1, i64 0, metadata !2655, metadata !1359), !dbg !2661
  tail call void @llvm.dbg.value(metadata %struct.latLong* %19, i64 0, metadata !2662, metadata !1359) #11, !dbg !2670
  tail call void @llvm.dbg.value(metadata %struct.latLong* %__position.coerce, i64 0, metadata !2667, metadata !1359) #11, !dbg !2672
  tail call void @llvm.dbg.value(metadata %struct.latLong* %cond.i, i64 0, metadata !2668, metadata !1359) #11, !dbg !2673
  %sub.ptr.rhs.cast.i.i.i.i.i.i.i.i103 = ptrtoint %struct.latLong* %19 to i64, !dbg !2674
  %sub.ptr.sub.i.i.i.i.i.i.i.i104 = sub i64 %0, %sub.ptr.rhs.cast.i.i.i.i.i.i.i.i103, !dbg !2674
  %sub.ptr.div.i.i.i.i.i.i.i.i105 = ashr exact i64 %sub.ptr.sub.i.i.i.i.i.i.i.i104, 3, !dbg !2674
  tail call void @llvm.dbg.value(metadata i64 %sub.ptr.div.i.i.i.i.i.i.i.i105, i64 0, metadata !2669, metadata !1359) #11, !dbg !2675
  %tobool.i.i.i.i.i.i.i.i106 = icmp eq i64 %sub.ptr.div.i.i.i.i.i.i.i.i105, 0, !dbg !2676
  br i1 %tobool.i.i.i.i.i.i.i.i106, label %invoke.cont30, label %if.then.i.i.i.i.i.i.i.i107, !dbg !2678

if.then.i.i.i.i.i.i.i.i107:                       ; preds = %invoke.cont
  %24 = bitcast %struct.latLong* %19 to i8*, !dbg !2679
  tail call void @llvm.memmove.p0i8.p0i8.i64(i8* %20, i8* %24, i64 %sub.ptr.sub.i.i.i.i.i.i.i.i104, i32 4, i1 false) #11, !dbg !2679
  br label %invoke.cont30, !dbg !2679

invoke.cont30:                                    ; preds = %if.then.i.i.i.i.i.i.i.i107, %invoke.cont
  %add.ptr.i.i.i.i.i.i.i.i108 = getelementptr inbounds %struct.latLong, %struct.latLong* %cond.i, i64 %sub.ptr.div.i.i.i.i.i.i.i.i105, !dbg !2680
  tail call void @llvm.dbg.value(metadata %struct.latLong* %add.ptr.i.i.i.i.i.i.i.i108, i64 0, metadata !2369, metadata !1359), !dbg !2567
  %incdec.ptr32 = getelementptr inbounds %struct.latLong, %struct.latLong* %add.ptr.i.i.i.i.i.i.i.i108, i64 1, !dbg !2681
  tail call void @llvm.dbg.value(metadata %struct.latLong* %incdec.ptr32, i64 0, metadata !2369, metadata !1359), !dbg !2567
  tail call void @llvm.dbg.value(metadata %"class.__gnu_cxx::__normal_iterator"* undef, i64 0, metadata !2359, metadata !1329), !dbg !2386
  %25 = load i64, i64* %13, align 8, !dbg !2682, !tbaa !2227
  tail call void @llvm.dbg.value(metadata %struct.latLong* %__position.coerce, i64 0, metadata !2577, metadata !1359), !dbg !2684
  tail call void @llvm.dbg.value(metadata %struct.latLong* %incdec.ptr32, i64 0, metadata !2588, metadata !1359), !dbg !2686
  tail call void @llvm.dbg.value(metadata %struct.latLong* %__position.coerce, i64 0, metadata !2594, metadata !1359), !dbg !2687
  tail call void @llvm.dbg.value(metadata %struct.latLong* %incdec.ptr32, i64 0, metadata !2599, metadata !1359), !dbg !2689
  tail call void @llvm.dbg.value(metadata %struct.latLong* %__position.coerce, i64 0, metadata !2605, metadata !1359), !dbg !2690
  tail call void @llvm.dbg.value(metadata %struct.latLong* %incdec.ptr32, i64 0, metadata !2610, metadata !1359), !dbg !2692
  tail call void @llvm.dbg.value(metadata %struct.latLong* %__position.coerce, i64 0, metadata !2615, metadata !1359), !dbg !2693
  tail call void @llvm.dbg.value(metadata %struct.latLong* %incdec.ptr32, i64 0, metadata !2623, metadata !1359), !dbg !2695
  tail call void @llvm.dbg.value(metadata %struct.latLong* %__position.coerce, i64 0, metadata !2628, metadata !1359), !dbg !2696
  tail call void @llvm.dbg.value(metadata %struct.latLong* %incdec.ptr32, i64 0, metadata !2635, metadata !1359), !dbg !2698
  tail call void @llvm.dbg.value(metadata %struct.latLong* %__position.coerce, i64 0, metadata !2640, metadata !1359), !dbg !2699
  tail call void @llvm.dbg.value(metadata %struct.latLong* %incdec.ptr32, i64 0, metadata !2645, metadata !1359), !dbg !2701
  tail call void @llvm.dbg.value(metadata %struct.latLong* %__position.coerce, i64 0, metadata !2650, metadata !1359), !dbg !2702
  tail call void @llvm.dbg.value(metadata %struct.latLong* %incdec.ptr32, i64 0, metadata !2654, metadata !1359), !dbg !2704
  tail call void @llvm.dbg.value(metadata i8 1, i64 0, metadata !2655, metadata !1359), !dbg !2705
  tail call void @llvm.dbg.value(metadata %struct.latLong* %__position.coerce, i64 0, metadata !2662, metadata !1359) #11, !dbg !2706
  tail call void @llvm.dbg.value(metadata %struct.latLong* %incdec.ptr32, i64 0, metadata !2668, metadata !1359) #11, !dbg !2708
  %sub.ptr.sub.i.i.i.i.i.i.i.i = sub i64 %25, %0, !dbg !2709
  %sub.ptr.div.i.i.i.i.i.i.i.i = ashr exact i64 %sub.ptr.sub.i.i.i.i.i.i.i.i, 3, !dbg !2709
  tail call void @llvm.dbg.value(metadata i64 %sub.ptr.div.i.i.i.i.i.i.i.i, i64 0, metadata !2669, metadata !1359) #11, !dbg !2710
  %tobool.i.i.i.i.i.i.i.i = icmp eq i64 %sub.ptr.div.i.i.i.i.i.i.i.i, 0, !dbg !2711
  br i1 %tobool.i.i.i.i.i.i.i.i, label %invoke.cont39, label %if.then.i.i.i.i.i.i.i.i, !dbg !2712

if.then.i.i.i.i.i.i.i.i:                          ; preds = %invoke.cont30
  %26 = bitcast %struct.latLong* %incdec.ptr32 to i8*, !dbg !2713
  %27 = bitcast %struct.latLong* %__position.coerce to i8*, !dbg !2713
  tail call void @llvm.memmove.p0i8.p0i8.i64(i8* %26, i8* %27, i64 %sub.ptr.sub.i.i.i.i.i.i.i.i, i32 4, i1 false) #11, !dbg !2713
  br label %invoke.cont39, !dbg !2713

invoke.cont39:                                    ; preds = %if.then.i.i.i.i.i.i.i.i, %invoke.cont30
  %add.ptr.i.i.i.i.i.i.i.i = getelementptr inbounds %struct.latLong, %struct.latLong* %incdec.ptr32, i64 %sub.ptr.div.i.i.i.i.i.i.i.i, !dbg !2714
  tail call void @llvm.dbg.value(metadata %struct.latLong* %add.ptr.i.i.i.i.i.i.i.i, i64 0, metadata !2369, metadata !1359), !dbg !2567
  tail call void @llvm.dbg.value(metadata %struct.latLong* %19, i64 0, metadata !1861, metadata !1359), !dbg !2715
  %tobool.i97 = icmp eq %struct.latLong* %19, null, !dbg !2717
  br i1 %tobool.i97, label %_ZNSt12_Vector_baseI7latLongSaIS0_EE13_M_deallocateEPS0_m.exit99, label %if.then.i98, !dbg !2718

if.then.i98:                                      ; preds = %invoke.cont39
  tail call void @llvm.dbg.value(metadata %struct.latLong* %19, i64 0, metadata !1871, metadata !1359) #11, !dbg !2719
  %28 = bitcast %struct.latLong* %19 to i8*, !dbg !2721
  tail call void @_ZdlPv(i8* %28) #11, !dbg !2722
  br label %_ZNSt12_Vector_baseI7latLongSaIS0_EE13_M_deallocateEPS0_m.exit99, !dbg !2723

_ZNSt12_Vector_baseI7latLongSaIS0_EE13_M_deallocateEPS0_m.exit99: ; preds = %invoke.cont39, %if.then.i98
  %29 = bitcast %"class.std::vector.0"* %this to i8**, !dbg !2724
  store i8* %20, i8** %29, align 8, !dbg !2724, !tbaa !1656
  store %struct.latLong* %add.ptr.i.i.i.i.i.i.i.i, %struct.latLong** %_M_finish, align 8, !dbg !2725, !tbaa !2227
  %add.ptr67 = getelementptr inbounds %struct.latLong, %struct.latLong* %cond.i, i64 %cond.i114, !dbg !2726
  store %struct.latLong* %add.ptr67, %struct.latLong** %_M_end_of_storage, align 8, !dbg !2727, !tbaa !2229
  br label %if.end70

if.end70:                                         ; preds = %_ZNSt12_Vector_baseI7latLongSaIS0_EE13_M_deallocateEPS0_m.exit99, %_ZSt13copy_backwardIP7latLongS1_ET0_T_S3_S2_.exit
  ret void, !dbg !2728
}

; Function Attrs: argmemonly nounwind
declare void @llvm.memmove.p0i8.p0i8.i64(i8* nocapture, i8* nocapture readonly, i64, i32, i1) #1

; Function Attrs: noreturn
declare void @_ZSt17__throw_bad_allocv() local_unnamed_addr #9

; Function Attrs: nobuiltin
declare noalias nonnull i8* @_Znwm(i64) local_unnamed_addr #10

; Function Attrs: uwtable
define linkonce_odr void @_ZNSt6vectorI6recordSaIS0_EE13_M_insert_auxEN9__gnu_cxx17__normal_iteratorIPS0_S2_EERKS0_(%"class.std::vector"* %this, %struct.record* %__position.coerce, %struct.record* dereferenceable(60) %__x) local_unnamed_addr #4 comdat align 2 personality i8* bitcast (i32 (...)* @__gxx_personality_v0 to i8*) !dbg !2730 {
entry:
  %__x_copy = alloca %struct.record, align 4
  %0 = ptrtoint %struct.record* %__position.coerce to i64
  tail call void @llvm.dbg.value(metadata %"class.std::vector"* %this, i64 0, metadata !2732, metadata !1359), !dbg !2743
  tail call void @llvm.dbg.value(metadata %struct.record* %__x, i64 0, metadata !2734, metadata !1359), !dbg !2744
  %_M_finish = getelementptr inbounds %"class.std::vector", %"class.std::vector"* %this, i64 0, i32 0, i32 0, i32 1, !dbg !2745
  %1 = load %struct.record*, %struct.record** %_M_finish, align 8, !dbg !2745, !tbaa !2267
  %_M_end_of_storage = getelementptr inbounds %"class.std::vector", %"class.std::vector"* %this, i64 0, i32 0, i32 0, i32 2, !dbg !2746
  %2 = load %struct.record*, %struct.record** %_M_end_of_storage, align 8, !dbg !2746, !tbaa !2269
  %cmp = icmp eq %struct.record* %1, %2, !dbg !2747
  br i1 %cmp, label %if.else, label %if.then, !dbg !2748

if.then:                                          ; preds = %entry
  tail call void @llvm.dbg.value(metadata %struct.record* %1, i64 0, metadata !2272, metadata !1359), !dbg !2749
  tail call void @llvm.dbg.value(metadata %struct.record* %1, i64 0, metadata !2284, metadata !1359) #11, !dbg !2751
  %3 = getelementptr inbounds %struct.record, %struct.record* %1, i64 0, i32 0, i64 0, !dbg !2753
  %4 = getelementptr inbounds %struct.record, %struct.record* %1, i64 -1, i32 0, i64 0, !dbg !2754
  tail call void @llvm.memcpy.p0i8.p0i8.i64(i8* %3, i8* nonnull %4, i64 60, i32 4, i1 false) #11, !dbg !2754, !tbaa.struct !1787
  %5 = load %struct.record*, %struct.record** %_M_finish, align 8, !dbg !2755, !tbaa !2267
  %incdec.ptr = getelementptr inbounds %struct.record, %struct.record* %5, i64 1, !dbg !2755
  store %struct.record* %incdec.ptr, %struct.record** %_M_finish, align 8, !dbg !2755, !tbaa !2267
  %__x_copy.0.__x_copy.0..sroa_idx = getelementptr inbounds %struct.record, %struct.record* %__x_copy, i64 0, i32 0, i64 0, !dbg !2756
  call void @llvm.lifetime.start(i64 60, i8* nonnull %__x_copy.0.__x_copy.0..sroa_idx), !dbg !2756
  %6 = getelementptr inbounds %struct.record, %struct.record* %__x, i64 0, i32 0, i64 0, !dbg !2757
  call void @llvm.memcpy.p0i8.p0i8.i64(i8* nonnull %__x_copy.0.__x_copy.0..sroa_idx, i8* nonnull %6, i64 60, i32 4, i1 false), !dbg !2757, !tbaa.struct !1787
  tail call void @llvm.dbg.value(metadata %"class.__gnu_cxx::__normal_iterator.5"* undef, i64 0, metadata !2733, metadata !1329), !dbg !2758
  %add.ptr12 = getelementptr inbounds %struct.record, %struct.record* %5, i64 -1, !dbg !2759
  tail call void @llvm.dbg.value(metadata %struct.record* %__position.coerce, i64 0, metadata !2760, metadata !1359), !dbg !2770
  tail call void @llvm.dbg.value(metadata %struct.record* %add.ptr12, i64 0, metadata !2768, metadata !1359), !dbg !2773
  tail call void @llvm.dbg.value(metadata %struct.record* %5, i64 0, metadata !2769, metadata !1359), !dbg !2774
  tail call void @llvm.dbg.value(metadata %struct.record* %__position.coerce, i64 0, metadata !2775, metadata !1359), !dbg !2781
  tail call void @llvm.dbg.value(metadata %struct.record* %add.ptr12, i64 0, metadata !2779, metadata !1359), !dbg !2783
  tail call void @llvm.dbg.value(metadata %struct.record* %5, i64 0, metadata !2780, metadata !1359), !dbg !2784
  tail call void @llvm.dbg.value(metadata %struct.record* %__position.coerce, i64 0, metadata !2785, metadata !1359), !dbg !2791
  tail call void @llvm.dbg.value(metadata %struct.record* %add.ptr12, i64 0, metadata !2788, metadata !1359), !dbg !2793
  tail call void @llvm.dbg.value(metadata %struct.record* %5, i64 0, metadata !2789, metadata !1359), !dbg !2794
  tail call void @llvm.dbg.value(metadata i8 1, i64 0, metadata !2790, metadata !1359), !dbg !2795
  tail call void @llvm.dbg.value(metadata %struct.record* %__position.coerce, i64 0, metadata !2796, metadata !1359) #11, !dbg !2805
  tail call void @llvm.dbg.value(metadata %struct.record* %add.ptr12, i64 0, metadata !2802, metadata !1359) #11, !dbg !2807
  tail call void @llvm.dbg.value(metadata %struct.record* %5, i64 0, metadata !2803, metadata !1359) #11, !dbg !2808
  %sub.ptr.lhs.cast.i.i.i.i = ptrtoint %struct.record* %add.ptr12 to i64, !dbg !2809
  %sub.ptr.sub.i.i.i.i = sub i64 %sub.ptr.lhs.cast.i.i.i.i, %0, !dbg !2809
  %7 = icmp eq i64 %sub.ptr.sub.i.i.i.i, 0, !dbg !2810
  br i1 %7, label %if.then._ZSt13copy_backwardIP6recordS1_ET0_T_S3_S2_.exit_crit_edge, label %if.then.i.i.i.i, !dbg !2812

if.then._ZSt13copy_backwardIP6recordS1_ET0_T_S3_S2_.exit_crit_edge: ; preds = %if.then
  %.pre119 = getelementptr inbounds %struct.record, %struct.record* %__position.coerce, i64 0, i32 0, i64 0, !dbg !2813
  br label %_ZSt13copy_backwardIP6recordS1_ET0_T_S3_S2_.exit, !dbg !2812

if.then.i.i.i.i:                                  ; preds = %if.then
  %idx.neg.i.i.i.i = sdiv i64 %sub.ptr.sub.i.i.i.i, -60, !dbg !2814
  %8 = getelementptr inbounds %struct.record, %struct.record* %5, i64 %idx.neg.i.i.i.i, i32 0, i64 0, !dbg !2815
  %9 = getelementptr inbounds %struct.record, %struct.record* %__position.coerce, i64 0, i32 0, i64 0, !dbg !2815
  tail call void @llvm.memmove.p0i8.p0i8.i64(i8* %8, i8* %9, i64 %sub.ptr.sub.i.i.i.i, i32 4, i1 false) #11, !dbg !2815
  br label %_ZSt13copy_backwardIP6recordS1_ET0_T_S3_S2_.exit, !dbg !2815

_ZSt13copy_backwardIP6recordS1_ET0_T_S3_S2_.exit: ; preds = %if.then._ZSt13copy_backwardIP6recordS1_ET0_T_S3_S2_.exit_crit_edge, %if.then.i.i.i.i
  %.pre-phi = phi i8* [ %.pre119, %if.then._ZSt13copy_backwardIP6recordS1_ET0_T_S3_S2_.exit_crit_edge ], [ %9, %if.then.i.i.i.i ], !dbg !2813
  tail call void @llvm.dbg.value(metadata %"class.__gnu_cxx::__normal_iterator.5"* undef, i64 0, metadata !2733, metadata !1329), !dbg !2758
  call void @llvm.memcpy.p0i8.p0i8.i64(i8* %.pre-phi, i8* nonnull %__x_copy.0.__x_copy.0..sroa_idx, i64 60, i32 4, i1 false), !dbg !2813, !tbaa.struct !1787
  call void @llvm.lifetime.end(i64 60, i8* nonnull %__x_copy.0.__x_copy.0..sroa_idx), !dbg !2816
  br label %if.end70, !dbg !2817

if.else:                                          ; preds = %entry
  %10 = ptrtoint %struct.record* %1 to i64, !dbg !2748
  tail call void @llvm.dbg.value(metadata %"class.std::vector"* %this, i64 0, metadata !2818, metadata !1359), !dbg !2825
  tail call void @llvm.dbg.value(metadata i64 1, i64 0, metadata !2821, metadata !1359), !dbg !2827
  tail call void @llvm.dbg.value(metadata %"class.std::vector"* %this, i64 0, metadata !2828, metadata !1359), !dbg !2831
  %11 = bitcast %struct.record** %_M_finish to i64*, !dbg !2835
  %12 = bitcast %"class.std::vector"* %this to i64*, !dbg !2836
  %13 = load i64, i64* %12, align 8, !dbg !2836, !tbaa !1361
  %sub.ptr.sub.i21.i = sub i64 %10, %13, !dbg !2837
  %sub.ptr.div.i22.i = sdiv exact i64 %sub.ptr.sub.i21.i, 60, !dbg !2837
  tail call void @llvm.dbg.value(metadata i64 1, i64 0, metadata !2821, metadata !1359), !dbg !2827
  tail call void @llvm.dbg.value(metadata %"class.std::vector"* %this, i64 0, metadata !2828, metadata !1359), !dbg !2838
  tail call void @llvm.dbg.value(metadata %"class.std::vector"* %this, i64 0, metadata !2828, metadata !1359), !dbg !2840
  %14 = icmp eq i64 %sub.ptr.sub.i21.i, 0, !dbg !2843
  %.sroa.speculated.i = select i1 %14, i64 1, i64 %sub.ptr.div.i22.i, !dbg !2846
  %add.i = add nsw i64 %.sroa.speculated.i, %sub.ptr.div.i22.i, !dbg !2847
  tail call void @llvm.dbg.value(metadata i64 %add.i, i64 0, metadata !2823, metadata !1359), !dbg !2848
  tail call void @llvm.dbg.value(metadata %"class.std::vector"* %this, i64 0, metadata !2828, metadata !1359), !dbg !2849
  %cmp7.i = icmp ult i64 %add.i, %sub.ptr.div.i22.i, !dbg !2851
  %cmp9.i = icmp ugt i64 %add.i, 307445734561825860, !dbg !2852
  %or.cond.i = or i1 %cmp7.i, %cmp9.i, !dbg !2853
  %cond.i113 = select i1 %or.cond.i, i64 307445734561825860, i64 %add.i, !dbg !2853
  tail call void @llvm.dbg.value(metadata i64 %cond.i113, i64 0, metadata !2738, metadata !1359), !dbg !2854
  tail call void @llvm.dbg.value(metadata %"class.std::vector"* %this, i64 0, metadata !2855, metadata !1359), !dbg !2858
  tail call void @llvm.dbg.value(metadata %"class.__gnu_cxx::__normal_iterator.5"* undef, i64 0, metadata !2860, metadata !1359), !dbg !2865
  %15 = getelementptr inbounds %"class.std::vector", %"class.std::vector"* %this, i64 0, i32 0, i32 0, i32 0, !dbg !2867
  tail call void @llvm.dbg.value(metadata %"class.__gnu_cxx::__normal_iterator.5"* undef, i64 0, metadata !2733, metadata !1329), !dbg !2758
  tail call void @llvm.dbg.value(metadata %"class.__gnu_cxx::__normal_iterator.5"* undef, i64 0, metadata !2868, metadata !1359), !dbg !2875
  tail call void @llvm.dbg.value(metadata %"class.__gnu_cxx::__normal_iterator.5"* undef, i64 0, metadata !2874, metadata !1359), !dbg !2878
  %sub.ptr.sub.i = sub i64 %0, %13, !dbg !2879
  %sub.ptr.div.i = sdiv exact i64 %sub.ptr.sub.i, 60, !dbg !2879
  tail call void @llvm.dbg.value(metadata i64 %sub.ptr.div.i, i64 0, metadata !2740, metadata !1359), !dbg !2880
  tail call void @llvm.dbg.value(metadata i64 %cond.i113, i64 0, metadata !2881, metadata !1359), !dbg !2885
  %cmp.i = icmp eq i64 %cond.i113, 0, !dbg !2887
  %16 = inttoptr i64 %13 to %struct.record*, !dbg !2888
  br i1 %cmp.i, label %invoke.cont, label %cond.true.i, !dbg !2888

cond.true.i:                                      ; preds = %if.else
  tail call void @llvm.dbg.value(metadata i64 %cond.i113, i64 0, metadata !2889, metadata !1359), !dbg !2894
  tail call void @llvm.dbg.value(metadata i8* null, i64 0, metadata !2893, metadata !1359), !dbg !2897
  %cmp.i.i = icmp ugt i64 %cond.i113, 307445734561825860, !dbg !2898
  br i1 %cmp.i.i, label %if.then.i.i, label %_ZN9__gnu_cxx13new_allocatorI6recordE8allocateEmPKv.exit.i, !dbg !2900

if.then.i.i:                                      ; preds = %cond.true.i
  tail call void @_ZSt17__throw_bad_allocv() #14, !dbg !2901
  unreachable, !dbg !2901

_ZN9__gnu_cxx13new_allocatorI6recordE8allocateEmPKv.exit.i: ; preds = %cond.true.i
  %mul.i.i = mul i64 %cond.i113, 60, !dbg !2902
  %call2.i.i = tail call i8* @_Znwm(i64 %mul.i.i), !dbg !2903
  %17 = bitcast i8* %call2.i.i to %struct.record*, !dbg !2904
  %.pre = load %struct.record*, %struct.record** %15, align 8, !tbaa !1745
  br label %invoke.cont, !dbg !2905

invoke.cont:                                      ; preds = %_ZN9__gnu_cxx13new_allocatorI6recordE8allocateEmPKv.exit.i, %if.else
  %18 = phi %struct.record* [ %.pre, %_ZN9__gnu_cxx13new_allocatorI6recordE8allocateEmPKv.exit.i ], [ %16, %if.else ]
  %cond.i = phi %struct.record* [ %17, %_ZN9__gnu_cxx13new_allocatorI6recordE8allocateEmPKv.exit.i ], [ null, %if.else ], !dbg !2906
  tail call void @llvm.dbg.value(metadata %struct.record* %cond.i, i64 0, metadata !2741, metadata !1359), !dbg !2908
  tail call void @llvm.dbg.value(metadata %struct.record* %cond.i, i64 0, metadata !2742, metadata !1359), !dbg !2909
  tail call void @llvm.dbg.value(metadata %struct.record* %__x, i64 0, metadata !2279, metadata !1359), !dbg !2910
  tail call void @llvm.dbg.value(metadata %struct.record* %__x, i64 0, metadata !2288, metadata !1359) #11, !dbg !2913
  %19 = getelementptr inbounds %struct.record, %struct.record* %cond.i, i64 %sub.ptr.div.i, i32 0, i64 0, !dbg !2915
  %20 = getelementptr inbounds %struct.record, %struct.record* %__x, i64 0, i32 0, i64 0, !dbg !2916
  tail call void @llvm.memcpy.p0i8.p0i8.i64(i8* %19, i8* nonnull %20, i64 60, i32 4, i1 false) #11, !dbg !2916, !tbaa.struct !1787
  tail call void @llvm.dbg.value(metadata %struct.record* null, i64 0, metadata !2742, metadata !1359), !dbg !2909
  tail call void @llvm.dbg.value(metadata %"class.__gnu_cxx::__normal_iterator.5"* undef, i64 0, metadata !2733, metadata !1329), !dbg !2758
  tail call void @llvm.dbg.value(metadata %struct.record* %18, i64 0, metadata !2917, metadata !1359), !dbg !2929
  tail call void @llvm.dbg.value(metadata %struct.record* %__position.coerce, i64 0, metadata !2926, metadata !1359), !dbg !2931
  tail call void @llvm.dbg.value(metadata %struct.record* %cond.i, i64 0, metadata !2927, metadata !1359), !dbg !2932
  tail call void @llvm.dbg.value(metadata %struct.record* %18, i64 0, metadata !2933, metadata !1359), !dbg !2940
  tail call void @llvm.dbg.value(metadata %struct.record* %__position.coerce, i64 0, metadata !2937, metadata !1359), !dbg !2942
  tail call void @llvm.dbg.value(metadata %struct.record* %cond.i, i64 0, metadata !2938, metadata !1359), !dbg !2943
  tail call void @llvm.dbg.value(metadata %struct.record* %18, i64 0, metadata !2944, metadata !1359), !dbg !2950
  tail call void @llvm.dbg.value(metadata %struct.record* %__position.coerce, i64 0, metadata !2948, metadata !1359), !dbg !2952
  tail call void @llvm.dbg.value(metadata %struct.record* %cond.i, i64 0, metadata !2949, metadata !1359), !dbg !2953
  tail call void @llvm.dbg.value(metadata %struct.record* %18, i64 0, metadata !2954, metadata !1359), !dbg !2960
  tail call void @llvm.dbg.value(metadata %struct.record* %__position.coerce, i64 0, metadata !2958, metadata !1359), !dbg !2962
  tail call void @llvm.dbg.value(metadata %struct.record* %cond.i, i64 0, metadata !2959, metadata !1359), !dbg !2963
  tail call void @llvm.dbg.value(metadata %struct.record* %18, i64 0, metadata !2964, metadata !1359), !dbg !2972
  tail call void @llvm.dbg.value(metadata %struct.record* %__position.coerce, i64 0, metadata !2970, metadata !1359), !dbg !2974
  tail call void @llvm.dbg.value(metadata %struct.record* %cond.i, i64 0, metadata !2971, metadata !1359), !dbg !2975
  tail call void @llvm.dbg.value(metadata %struct.record* %18, i64 0, metadata !2976, metadata !1359), !dbg !2982
  tail call void @llvm.dbg.value(metadata %struct.record* %__position.coerce, i64 0, metadata !2980, metadata !1359), !dbg !2984
  tail call void @llvm.dbg.value(metadata %struct.record* %cond.i, i64 0, metadata !2981, metadata !1359), !dbg !2985
  tail call void @llvm.dbg.value(metadata %struct.record* %18, i64 0, metadata !2986, metadata !1359), !dbg !2992
  tail call void @llvm.dbg.value(metadata %struct.record* %__position.coerce, i64 0, metadata !2989, metadata !1359), !dbg !2995
  tail call void @llvm.dbg.value(metadata %struct.record* %cond.i, i64 0, metadata !2990, metadata !1359), !dbg !2996
  tail call void @llvm.dbg.value(metadata i8 1, i64 0, metadata !2991, metadata !1359), !dbg !2997
  tail call void @llvm.dbg.value(metadata %struct.record* %18, i64 0, metadata !2998, metadata !1359) #11, !dbg !3005
  tail call void @llvm.dbg.value(metadata %struct.record* %__position.coerce, i64 0, metadata !3002, metadata !1359) #11, !dbg !3007
  tail call void @llvm.dbg.value(metadata %struct.record* %cond.i, i64 0, metadata !3003, metadata !1359) #11, !dbg !3008
  %sub.ptr.rhs.cast.i.i.i.i.i.i.i.i103 = ptrtoint %struct.record* %18 to i64, !dbg !3009
  %sub.ptr.sub.i.i.i.i.i.i.i.i104 = sub i64 %0, %sub.ptr.rhs.cast.i.i.i.i.i.i.i.i103, !dbg !3009
  %sub.ptr.div.i.i.i.i.i.i.i.i105 = sdiv exact i64 %sub.ptr.sub.i.i.i.i.i.i.i.i104, 60, !dbg !3009
  tail call void @llvm.dbg.value(metadata i64 %sub.ptr.div.i.i.i.i.i.i.i.i105, i64 0, metadata !3004, metadata !1359) #11, !dbg !3010
  %21 = icmp eq i64 %sub.ptr.sub.i.i.i.i.i.i.i.i104, 0, !dbg !3011
  br i1 %21, label %invoke.cont30, label %if.then.i.i.i.i.i.i.i.i106, !dbg !3013

if.then.i.i.i.i.i.i.i.i106:                       ; preds = %invoke.cont
  %22 = getelementptr inbounds %struct.record, %struct.record* %cond.i, i64 0, i32 0, i64 0, !dbg !3014
  %23 = getelementptr inbounds %struct.record, %struct.record* %18, i64 0, i32 0, i64 0, !dbg !3014
  tail call void @llvm.memmove.p0i8.p0i8.i64(i8* %22, i8* %23, i64 %sub.ptr.sub.i.i.i.i.i.i.i.i104, i32 4, i1 false) #11, !dbg !3014
  br label %invoke.cont30, !dbg !3014

invoke.cont30:                                    ; preds = %if.then.i.i.i.i.i.i.i.i106, %invoke.cont
  %add.ptr.i.i.i.i.i.i.i.i107 = getelementptr inbounds %struct.record, %struct.record* %cond.i, i64 %sub.ptr.div.i.i.i.i.i.i.i.i105, !dbg !3015
  tail call void @llvm.dbg.value(metadata %struct.record* %add.ptr.i.i.i.i.i.i.i.i107, i64 0, metadata !2742, metadata !1359), !dbg !2909
  %incdec.ptr32 = getelementptr inbounds %struct.record, %struct.record* %add.ptr.i.i.i.i.i.i.i.i107, i64 1, !dbg !3016
  tail call void @llvm.dbg.value(metadata %struct.record* %incdec.ptr32, i64 0, metadata !2742, metadata !1359), !dbg !2909
  tail call void @llvm.dbg.value(metadata %"class.__gnu_cxx::__normal_iterator.5"* undef, i64 0, metadata !2733, metadata !1329), !dbg !2758
  %24 = load i64, i64* %11, align 8, !dbg !3017, !tbaa !2267
  tail call void @llvm.dbg.value(metadata %struct.record* %__position.coerce, i64 0, metadata !2917, metadata !1359), !dbg !3019
  tail call void @llvm.dbg.value(metadata %struct.record* %incdec.ptr32, i64 0, metadata !2927, metadata !1359), !dbg !3021
  tail call void @llvm.dbg.value(metadata %struct.record* %__position.coerce, i64 0, metadata !2933, metadata !1359), !dbg !3022
  tail call void @llvm.dbg.value(metadata %struct.record* %incdec.ptr32, i64 0, metadata !2938, metadata !1359), !dbg !3024
  tail call void @llvm.dbg.value(metadata %struct.record* %__position.coerce, i64 0, metadata !2944, metadata !1359), !dbg !3025
  tail call void @llvm.dbg.value(metadata %struct.record* %incdec.ptr32, i64 0, metadata !2949, metadata !1359), !dbg !3027
  tail call void @llvm.dbg.value(metadata %struct.record* %__position.coerce, i64 0, metadata !2954, metadata !1359), !dbg !3028
  tail call void @llvm.dbg.value(metadata %struct.record* %incdec.ptr32, i64 0, metadata !2959, metadata !1359), !dbg !3030
  tail call void @llvm.dbg.value(metadata %struct.record* %__position.coerce, i64 0, metadata !2964, metadata !1359), !dbg !3031
  tail call void @llvm.dbg.value(metadata %struct.record* %incdec.ptr32, i64 0, metadata !2971, metadata !1359), !dbg !3033
  tail call void @llvm.dbg.value(metadata %struct.record* %__position.coerce, i64 0, metadata !2976, metadata !1359), !dbg !3034
  tail call void @llvm.dbg.value(metadata %struct.record* %incdec.ptr32, i64 0, metadata !2981, metadata !1359), !dbg !3036
  tail call void @llvm.dbg.value(metadata %struct.record* %__position.coerce, i64 0, metadata !2986, metadata !1359), !dbg !3037
  tail call void @llvm.dbg.value(metadata %struct.record* %incdec.ptr32, i64 0, metadata !2990, metadata !1359), !dbg !3039
  tail call void @llvm.dbg.value(metadata i8 1, i64 0, metadata !2991, metadata !1359), !dbg !3040
  tail call void @llvm.dbg.value(metadata %struct.record* %__position.coerce, i64 0, metadata !2998, metadata !1359) #11, !dbg !3041
  tail call void @llvm.dbg.value(metadata %struct.record* %incdec.ptr32, i64 0, metadata !3003, metadata !1359) #11, !dbg !3043
  %sub.ptr.sub.i.i.i.i.i.i.i.i = sub i64 %24, %0, !dbg !3044
  %sub.ptr.div.i.i.i.i.i.i.i.i = sdiv exact i64 %sub.ptr.sub.i.i.i.i.i.i.i.i, 60, !dbg !3044
  tail call void @llvm.dbg.value(metadata i64 %sub.ptr.div.i.i.i.i.i.i.i.i, i64 0, metadata !3004, metadata !1359) #11, !dbg !3045
  %25 = icmp eq i64 %sub.ptr.sub.i.i.i.i.i.i.i.i, 0, !dbg !3046
  br i1 %25, label %invoke.cont39, label %if.then.i.i.i.i.i.i.i.i, !dbg !3047

if.then.i.i.i.i.i.i.i.i:                          ; preds = %invoke.cont30
  %26 = getelementptr inbounds %struct.record, %struct.record* %incdec.ptr32, i64 0, i32 0, i64 0, !dbg !3048
  %27 = getelementptr inbounds %struct.record, %struct.record* %__position.coerce, i64 0, i32 0, i64 0, !dbg !3048
  tail call void @llvm.memmove.p0i8.p0i8.i64(i8* %26, i8* %27, i64 %sub.ptr.sub.i.i.i.i.i.i.i.i, i32 4, i1 false) #11, !dbg !3048
  br label %invoke.cont39, !dbg !3048

invoke.cont39:                                    ; preds = %if.then.i.i.i.i.i.i.i.i, %invoke.cont30
  %add.ptr.i.i.i.i.i.i.i.i = getelementptr inbounds %struct.record, %struct.record* %incdec.ptr32, i64 %sub.ptr.div.i.i.i.i.i.i.i.i, !dbg !3049
  tail call void @llvm.dbg.value(metadata %struct.record* %add.ptr.i.i.i.i.i.i.i.i, i64 0, metadata !2742, metadata !1359), !dbg !2909
  tail call void @llvm.dbg.value(metadata %struct.record* %18, i64 0, metadata !1896, metadata !1359), !dbg !3050
  %tobool.i97 = icmp eq %struct.record* %18, null, !dbg !3052
  br i1 %tobool.i97, label %_ZNSt12_Vector_baseI6recordSaIS0_EE13_M_deallocateEPS0_m.exit99, label %if.then.i98, !dbg !3053

if.then.i98:                                      ; preds = %invoke.cont39
  tail call void @llvm.dbg.value(metadata %struct.record* %18, i64 0, metadata !1906, metadata !1359) #11, !dbg !3054
  %28 = getelementptr inbounds %struct.record, %struct.record* %18, i64 0, i32 0, i64 0, !dbg !3056
  tail call void @_ZdlPv(i8* %28) #11, !dbg !3057
  br label %_ZNSt12_Vector_baseI6recordSaIS0_EE13_M_deallocateEPS0_m.exit99, !dbg !3058

_ZNSt12_Vector_baseI6recordSaIS0_EE13_M_deallocateEPS0_m.exit99: ; preds = %invoke.cont39, %if.then.i98
  store %struct.record* %cond.i, %struct.record** %15, align 8, !dbg !3059, !tbaa !1745
  store %struct.record* %add.ptr.i.i.i.i.i.i.i.i, %struct.record** %_M_finish, align 8, !dbg !3060, !tbaa !2267
  %add.ptr67 = getelementptr inbounds %struct.record, %struct.record* %cond.i, i64 %cond.i113, !dbg !3061
  store %struct.record* %add.ptr67, %struct.record** %_M_end_of_storage, align 8, !dbg !3062, !tbaa !2269
  br label %if.end70

if.end70:                                         ; preds = %_ZNSt12_Vector_baseI6recordSaIS0_EE13_M_deallocateEPS0_m.exit99, %_ZSt13copy_backwardIP6recordS1_ET0_T_S3_S2_.exit
  ret void, !dbg !3063
}

; Function Attrs: nounwind readnone
declare void @llvm.dbg.value(metadata, i64, metadata, metadata) #2

; Function Attrs: nounwind
declare i32 @puts(i8* nocapture readonly) #11

declare i32 @putchar(i32)

; Function Attrs: nounwind
declare i64 @fwrite(i8* nocapture, i64, i64, %struct._IO_FILE* nocapture) #11

; Function Attrs: argmemonly nounwind
declare void @llvm.memset.p0i8.i64(i8* nocapture writeonly, i8, i64, i32, i1) #1

attributes #0 = { nounwind uwtable "correctly-rounded-divide-sqrt-fp-math"="false" "disable-tail-calls"="false" "less-precise-fpmad"="false" "no-frame-pointer-elim"="false" "no-infs-fp-math"="false" "no-jump-tables"="false" "no-nans-fp-math"="false" "no-signed-zeros-fp-math"="false" "no-trapping-math"="false" "stack-protector-buffer-size"="8" "target-cpu"="x86-64" "target-features"="+fxsr,+mmx,+sse,+sse2,+x87" "unsafe-fp-math"="false" "use-soft-float"="false" }
attributes #1 = { argmemonly nounwind }
attributes #2 = { nounwind readnone }
attributes #3 = { nounwind "correctly-rounded-divide-sqrt-fp-math"="false" "disable-tail-calls"="false" "less-precise-fpmad"="false" "no-frame-pointer-elim"="false" "no-infs-fp-math"="false" "no-nans-fp-math"="false" "no-signed-zeros-fp-math"="false" "no-trapping-math"="false" "stack-protector-buffer-size"="8" "target-cpu"="x86-64" "target-features"="+fxsr,+mmx,+sse,+sse2,+x87" "unsafe-fp-math"="false" "use-soft-float"="false" }
attributes #4 = { uwtable "correctly-rounded-divide-sqrt-fp-math"="false" "disable-tail-calls"="false" "less-precise-fpmad"="false" "no-frame-pointer-elim"="false" "no-infs-fp-math"="false" "no-jump-tables"="false" "no-nans-fp-math"="false" "no-signed-zeros-fp-math"="false" "no-trapping-math"="false" "stack-protector-buffer-size"="8" "target-cpu"="x86-64" "target-features"="+fxsr,+mmx,+sse,+sse2,+x87" "unsafe-fp-math"="false" "use-soft-float"="false" }
attributes #5 = { norecurse uwtable "correctly-rounded-divide-sqrt-fp-math"="false" "disable-tail-calls"="false" "less-precise-fpmad"="false" "no-frame-pointer-elim"="false" "no-infs-fp-math"="false" "no-jump-tables"="false" "no-nans-fp-math"="false" "no-signed-zeros-fp-math"="false" "no-trapping-math"="false" "stack-protector-buffer-size"="8" "target-cpu"="x86-64" "target-features"="+fxsr,+mmx,+sse,+sse2,+x87" "unsafe-fp-math"="false" "use-soft-float"="false" }
attributes #6 = { "correctly-rounded-divide-sqrt-fp-math"="false" "disable-tail-calls"="false" "less-precise-fpmad"="false" "no-frame-pointer-elim"="false" "no-infs-fp-math"="false" "no-nans-fp-math"="false" "no-signed-zeros-fp-math"="false" "no-trapping-math"="false" "stack-protector-buffer-size"="8" "target-cpu"="x86-64" "target-features"="+fxsr,+mmx,+sse,+sse2,+x87" "unsafe-fp-math"="false" "use-soft-float"="false" }
attributes #7 = { noreturn nounwind "correctly-rounded-divide-sqrt-fp-math"="false" "disable-tail-calls"="false" "less-precise-fpmad"="false" "no-frame-pointer-elim"="false" "no-infs-fp-math"="false" "no-nans-fp-math"="false" "no-signed-zeros-fp-math"="false" "no-trapping-math"="false" "stack-protector-buffer-size"="8" "target-cpu"="x86-64" "target-features"="+fxsr,+mmx,+sse,+sse2,+x87" "unsafe-fp-math"="false" "use-soft-float"="false" }
attributes #8 = { nobuiltin nounwind "correctly-rounded-divide-sqrt-fp-math"="false" "disable-tail-calls"="false" "less-precise-fpmad"="false" "no-frame-pointer-elim"="false" "no-infs-fp-math"="false" "no-nans-fp-math"="false" "no-signed-zeros-fp-math"="false" "no-trapping-math"="false" "stack-protector-buffer-size"="8" "target-cpu"="x86-64" "target-features"="+fxsr,+mmx,+sse,+sse2,+x87" "unsafe-fp-math"="false" "use-soft-float"="false" }
attributes #9 = { noreturn "correctly-rounded-divide-sqrt-fp-math"="false" "disable-tail-calls"="false" "less-precise-fpmad"="false" "no-frame-pointer-elim"="false" "no-infs-fp-math"="false" "no-nans-fp-math"="false" "no-signed-zeros-fp-math"="false" "no-trapping-math"="false" "stack-protector-buffer-size"="8" "target-cpu"="x86-64" "target-features"="+fxsr,+mmx,+sse,+sse2,+x87" "unsafe-fp-math"="false" "use-soft-float"="false" }
attributes #10 = { nobuiltin "correctly-rounded-divide-sqrt-fp-math"="false" "disable-tail-calls"="false" "less-precise-fpmad"="false" "no-frame-pointer-elim"="false" "no-infs-fp-math"="false" "no-nans-fp-math"="false" "no-signed-zeros-fp-math"="false" "no-trapping-math"="false" "stack-protector-buffer-size"="8" "target-cpu"="x86-64" "target-features"="+fxsr,+mmx,+sse,+sse2,+x87" "unsafe-fp-math"="false" "use-soft-float"="false" }
attributes #11 = { nounwind }
attributes #12 = { cold }
attributes #13 = { noreturn nounwind }
attributes #14 = { noreturn }

!llvm.dbg.cu = !{!0}
!llvm.module.flags = !{!1312, !1313}
!llvm.ident = !{!1314}

!0 = distinct !DICompileUnit(language: DW_LANG_C_plus_plus, file: !1, producer: "clang version 5.0.0 (trunk 294196)", isOptimized: true, runtimeVersion: 0, emissionKind: FullDebug, enums: !2, retainedTypes: !38, imports: !761)
!1 = !DIFile(filename: "nn_cuda.cu", directory: "/home/dshen/llvm/llvm/lib/Transforms/Hello/expr/BD_mode/nnllvm")
!2 = !{!3, !11, !26}
!3 = !DICompositeType(tag: DW_TAG_enumeration_type, name: "cudaMemcpyKind", file: !4, line: 796, size: 32, elements: !5, identifier: "_ZTS14cudaMemcpyKind")
!4 = !DIFile(filename: "/usr/local/cuda/include/driver_types.h", directory: "/home/dshen/llvm/llvm/lib/Transforms/Hello/expr/BD_mode/nnllvm")
!5 = !{!6, !7, !8, !9, !10}
!6 = !DIEnumerator(name: "cudaMemcpyHostToHost", value: 0)
!7 = !DIEnumerator(name: "cudaMemcpyHostToDevice", value: 1)
!8 = !DIEnumerator(name: "cudaMemcpyDeviceToHost", value: 2)
!9 = !DIEnumerator(name: "cudaMemcpyDeviceToDevice", value: 3)
!10 = !DIEnumerator(name: "cudaMemcpyDefault", value: 4)
!11 = !DICompositeType(tag: DW_TAG_enumeration_type, scope: !13, file: !12, line: 113, size: 32, elements: !24, identifier: "_ZTSNSt10__are_sameI7latLongS0_EUt_E")
!12 = !DIFile(filename: "/usr/lib/gcc/x86_64-linux-gnu/4.8/../../../../include/c++/4.8/bits/cpp_type_traits.h", directory: "/home/dshen/llvm/llvm/lib/Transforms/Hello/expr/BD_mode/nnllvm")
!13 = distinct !DICompositeType(tag: DW_TAG_structure_type, name: "__are_same<latLong, latLong>", scope: !14, file: !12, line: 111, size: 8, elements: !16, templateParams: !17, identifier: "_ZTSSt10__are_sameI7latLongS0_E")
!14 = !DINamespace(name: "std", scope: null, file: !15, line: 195)
!15 = !DIFile(filename: "/home/dshen/llvm/build/bin/../lib/clang/5.0.0/include/__clang_cuda_math_forward_declares.h", directory: "/home/dshen/llvm/llvm/lib/Transforms/Hello/expr/BD_mode/nnllvm")
!16 = !{}
!17 = !{!18, !18}
!18 = !DITemplateTypeParameter(type: !19)
!19 = distinct !DICompositeType(tag: DW_TAG_structure_type, name: "latLong", file: !1, line: 35, size: 64, elements: !20, identifier: "_ZTS7latLong")
!20 = !{!21, !23}
!21 = !DIDerivedType(tag: DW_TAG_member, name: "lat", scope: !19, file: !1, line: 37, baseType: !22, size: 32)
!22 = !DIBasicType(name: "float", size: 32, encoding: DW_ATE_float)
!23 = !DIDerivedType(tag: DW_TAG_member, name: "lng", scope: !19, file: !1, line: 38, baseType: !22, size: 32, offset: 32)
!24 = !{!25}
!25 = !DIEnumerator(name: "__value", value: 1)
!26 = !DICompositeType(tag: DW_TAG_enumeration_type, scope: !27, file: !12, line: 113, size: 32, elements: !24, identifier: "_ZTSNSt10__are_sameI6recordS0_EUt_E")
!27 = distinct !DICompositeType(tag: DW_TAG_structure_type, name: "__are_same<record, record>", scope: !14, file: !12, line: 111, size: 8, elements: !16, templateParams: !28, identifier: "_ZTSSt10__are_sameI6recordS0_E")
!28 = !{!29, !29}
!29 = !DITemplateTypeParameter(type: !30)
!30 = distinct !DICompositeType(tag: DW_TAG_structure_type, name: "record", file: !1, line: 41, size: 480, elements: !31, identifier: "_ZTS6record")
!31 = !{!32, !37}
!32 = !DIDerivedType(tag: DW_TAG_member, name: "recString", scope: !30, file: !1, line: 43, baseType: !33, size: 424)
!33 = !DICompositeType(tag: DW_TAG_array_type, baseType: !34, size: 424, elements: !35)
!34 = !DIBasicType(name: "char", size: 8, encoding: DW_ATE_signed_char)
!35 = !{!36}
!36 = !DISubrange(count: 53)
!37 = !DIDerivedType(tag: DW_TAG_member, name: "distance", scope: !30, file: !1, line: 44, baseType: !22, size: 32, offset: 448)
!38 = !{!39, !40, !41, !43, !45, !46, !210, !42, !363, !246, !103, !364, !365, !87, !566, !567}
!39 = !DIBasicType(name: "double", size: 64, encoding: DW_ATE_float)
!40 = !DIDerivedType(tag: DW_TAG_pointer_type, baseType: !22, size: 64)
!41 = !DIDerivedType(tag: DW_TAG_pointer_type, baseType: !42, size: 64)
!42 = !DIDerivedType(tag: DW_TAG_pointer_type, baseType: null, size: 64)
!43 = !DIDerivedType(tag: DW_TAG_pointer_type, baseType: !44, size: 64)
!44 = !DIDerivedType(tag: DW_TAG_pointer_type, baseType: !34, size: 64)
!45 = !DIBasicType(name: "int", size: 32, encoding: DW_ATE_signed)
!46 = !DIDerivedType(tag: DW_TAG_pointer_type, baseType: !47, size: 64)
!47 = !DIDerivedType(tag: DW_TAG_typedef, name: "_Tp_alloc_type", scope: !49, file: !48, line: 75, baseType: !204)
!48 = !DIFile(filename: "/usr/lib/gcc/x86_64-linux-gnu/4.8/../../../../include/c++/4.8/bits/stl_vector.h", directory: "/home/dshen/llvm/llvm/lib/Transforms/Hello/expr/BD_mode/nnllvm")
!49 = distinct !DICompositeType(tag: DW_TAG_structure_type, name: "_Vector_base<record, std::allocator<record> >", scope: !14, file: !48, line: 72, size: 192, elements: !50, templateParams: !203, identifier: "_ZTSSt12_Vector_baseI6recordSaIS0_EE")
!50 = !{!51, !167, !172, !177, !181, !184, !189, !192, !195, !196, !199, !202}
!51 = !DIDerivedType(tag: DW_TAG_member, name: "_M_impl", scope: !49, file: !48, line: 164, baseType: !52, size: 192)
!52 = distinct !DICompositeType(tag: DW_TAG_structure_type, name: "_Vector_impl", scope: !49, file: !48, line: 79, size: 192, elements: !53, identifier: "_ZTSNSt12_Vector_baseI6recordSaIS0_EE12_Vector_implE")
!53 = !{!54, !55, !152, !153, !154, !158, !163}
!54 = !DIDerivedType(tag: DW_TAG_inheritance, scope: !52, baseType: !47)
!55 = !DIDerivedType(tag: DW_TAG_member, name: "_M_start", scope: !52, file: !48, line: 82, baseType: !56, size: 64)
!56 = !DIDerivedType(tag: DW_TAG_typedef, name: "pointer", scope: !49, file: !48, line: 77, baseType: !57)
!57 = !DIDerivedType(tag: DW_TAG_typedef, name: "pointer", scope: !59, file: !58, line: 199, baseType: !151)
!58 = !DIFile(filename: "/usr/lib/gcc/x86_64-linux-gnu/4.8/../../../../include/c++/4.8/ext/alloc_traits.h", directory: "/home/dshen/llvm/llvm/lib/Transforms/Hello/expr/BD_mode/nnllvm")
!59 = distinct !DICompositeType(tag: DW_TAG_structure_type, name: "__alloc_traits<std::allocator<record> >", scope: !60, file: !58, line: 121, size: 8, elements: !61, templateParams: !149, identifier: "_ZTSN9__gnu_cxx14__alloc_traitsISaI6recordEEE")
!60 = !DINamespace(name: "__gnu_cxx", scope: null, file: !12, line: 68)
!61 = !{!62, !134, !137, !140, !143, !146}
!62 = !DISubprogram(name: "allocate", linkageName: "_ZN9__gnu_cxx14__alloc_traitsISaI6recordEE8allocateERS2_m", scope: !59, file: !58, line: 208, type: !63, isLocal: false, isDefinition: false, scopeLine: 208, flags: DIFlagPrototyped, isOptimized: true)
!63 = !DISubroutineType(types: !64)
!64 = !{!57, !65, !132}
!65 = !DIDerivedType(tag: DW_TAG_reference_type, baseType: !66, size: 64)
!66 = distinct !DICompositeType(tag: DW_TAG_class_type, name: "allocator<record>", scope: !14, file: !67, line: 92, size: 8, elements: !68, templateParams: !120, identifier: "_ZTSSaI6recordE")
!67 = !DIFile(filename: "/usr/lib/gcc/x86_64-linux-gnu/4.8/../../../../include/c++/4.8/bits/allocator.h", directory: "/home/dshen/llvm/llvm/lib/Transforms/Hello/expr/BD_mode/nnllvm")
!68 = !{!69, !122, !126, !131}
!69 = !DIDerivedType(tag: DW_TAG_inheritance, scope: !66, baseType: !70, flags: DIFlagPublic)
!70 = distinct !DICompositeType(tag: DW_TAG_class_type, name: "new_allocator<record>", scope: !60, file: !71, line: 58, size: 8, elements: !72, templateParams: !120, identifier: "_ZTSN9__gnu_cxx13new_allocatorI6recordEE")
!71 = !DIFile(filename: "/usr/lib/gcc/x86_64-linux-gnu/4.8/../../../../include/c++/4.8/ext/new_allocator.h", directory: "/home/dshen/llvm/llvm/lib/Transforms/Hello/expr/BD_mode/nnllvm")
!72 = !{!73, !77, !82, !83, !91, !99, !108, !111, !114, !117}
!73 = !DISubprogram(name: "new_allocator", scope: !70, file: !71, line: 79, type: !74, isLocal: false, isDefinition: false, scopeLine: 79, flags: DIFlagPublic | DIFlagPrototyped, isOptimized: true)
!74 = !DISubroutineType(types: !75)
!75 = !{null, !76}
!76 = !DIDerivedType(tag: DW_TAG_pointer_type, baseType: !70, size: 64, flags: DIFlagArtificial | DIFlagObjectPointer)
!77 = !DISubprogram(name: "new_allocator", scope: !70, file: !71, line: 81, type: !78, isLocal: false, isDefinition: false, scopeLine: 81, flags: DIFlagPublic | DIFlagPrototyped, isOptimized: true)
!78 = !DISubroutineType(types: !79)
!79 = !{null, !76, !80}
!80 = !DIDerivedType(tag: DW_TAG_reference_type, baseType: !81, size: 64)
!81 = !DIDerivedType(tag: DW_TAG_const_type, baseType: !70)
!82 = !DISubprogram(name: "~new_allocator", scope: !70, file: !71, line: 86, type: !74, isLocal: false, isDefinition: false, scopeLine: 86, flags: DIFlagPublic | DIFlagPrototyped, isOptimized: true)
!83 = !DISubprogram(name: "address", linkageName: "_ZNK9__gnu_cxx13new_allocatorI6recordE7addressERS1_", scope: !70, file: !71, line: 89, type: !84, isLocal: false, isDefinition: false, scopeLine: 89, flags: DIFlagPublic | DIFlagPrototyped, isOptimized: true)
!84 = !DISubroutineType(types: !85)
!85 = !{!86, !88, !89}
!86 = !DIDerivedType(tag: DW_TAG_typedef, name: "pointer", scope: !70, file: !71, line: 63, baseType: !87)
!87 = !DIDerivedType(tag: DW_TAG_pointer_type, baseType: !30, size: 64)
!88 = !DIDerivedType(tag: DW_TAG_pointer_type, baseType: !81, size: 64, flags: DIFlagArtificial | DIFlagObjectPointer)
!89 = !DIDerivedType(tag: DW_TAG_typedef, name: "reference", scope: !70, file: !71, line: 65, baseType: !90)
!90 = !DIDerivedType(tag: DW_TAG_reference_type, baseType: !30, size: 64)
!91 = !DISubprogram(name: "address", linkageName: "_ZNK9__gnu_cxx13new_allocatorI6recordE7addressERKS1_", scope: !70, file: !71, line: 93, type: !92, isLocal: false, isDefinition: false, scopeLine: 93, flags: DIFlagPublic | DIFlagPrototyped, isOptimized: true)
!92 = !DISubroutineType(types: !93)
!93 = !{!94, !88, !97}
!94 = !DIDerivedType(tag: DW_TAG_typedef, name: "const_pointer", scope: !70, file: !71, line: 64, baseType: !95)
!95 = !DIDerivedType(tag: DW_TAG_pointer_type, baseType: !96, size: 64)
!96 = !DIDerivedType(tag: DW_TAG_const_type, baseType: !30)
!97 = !DIDerivedType(tag: DW_TAG_typedef, name: "const_reference", scope: !70, file: !71, line: 66, baseType: !98)
!98 = !DIDerivedType(tag: DW_TAG_reference_type, baseType: !96, size: 64)
!99 = !DISubprogram(name: "allocate", linkageName: "_ZN9__gnu_cxx13new_allocatorI6recordE8allocateEmPKv", scope: !70, file: !71, line: 99, type: !100, isLocal: false, isDefinition: false, scopeLine: 99, flags: DIFlagPublic | DIFlagPrototyped, isOptimized: true)
!100 = !DISubroutineType(types: !101)
!101 = !{!86, !76, !102, !106}
!102 = !DIDerivedType(tag: DW_TAG_typedef, name: "size_type", file: !71, line: 61, baseType: !103)
!103 = !DIDerivedType(tag: DW_TAG_typedef, name: "size_t", scope: !14, file: !104, line: 186, baseType: !105)
!104 = !DIFile(filename: "/usr/lib/gcc/x86_64-linux-gnu/4.8/../../../../include/x86_64-linux-gnu/c++/4.8/bits/c++config.h", directory: "/home/dshen/llvm/llvm/lib/Transforms/Hello/expr/BD_mode/nnllvm")
!105 = !DIBasicType(name: "long unsigned int", size: 64, encoding: DW_ATE_unsigned)
!106 = !DIDerivedType(tag: DW_TAG_pointer_type, baseType: !107, size: 64)
!107 = !DIDerivedType(tag: DW_TAG_const_type, baseType: null)
!108 = !DISubprogram(name: "deallocate", linkageName: "_ZN9__gnu_cxx13new_allocatorI6recordE10deallocateEPS1_m", scope: !70, file: !71, line: 109, type: !109, isLocal: false, isDefinition: false, scopeLine: 109, flags: DIFlagPublic | DIFlagPrototyped, isOptimized: true)
!109 = !DISubroutineType(types: !110)
!110 = !{null, !76, !86, !102}
!111 = !DISubprogram(name: "max_size", linkageName: "_ZNK9__gnu_cxx13new_allocatorI6recordE8max_sizeEv", scope: !70, file: !71, line: 113, type: !112, isLocal: false, isDefinition: false, scopeLine: 113, flags: DIFlagPublic | DIFlagPrototyped, isOptimized: true)
!112 = !DISubroutineType(types: !113)
!113 = !{!102, !88}
!114 = !DISubprogram(name: "construct", linkageName: "_ZN9__gnu_cxx13new_allocatorI6recordE9constructEPS1_RKS1_", scope: !70, file: !71, line: 129, type: !115, isLocal: false, isDefinition: false, scopeLine: 129, flags: DIFlagPublic | DIFlagPrototyped, isOptimized: true)
!115 = !DISubroutineType(types: !116)
!116 = !{null, !76, !86, !98}
!117 = !DISubprogram(name: "destroy", linkageName: "_ZN9__gnu_cxx13new_allocatorI6recordE7destroyEPS1_", scope: !70, file: !71, line: 133, type: !118, isLocal: false, isDefinition: false, scopeLine: 133, flags: DIFlagPublic | DIFlagPrototyped, isOptimized: true)
!118 = !DISubroutineType(types: !119)
!119 = !{null, !76, !86}
!120 = !{!121}
!121 = !DITemplateTypeParameter(name: "_Tp", type: !30)
!122 = !DISubprogram(name: "allocator", scope: !66, file: !67, line: 113, type: !123, isLocal: false, isDefinition: false, scopeLine: 113, flags: DIFlagPublic | DIFlagPrototyped, isOptimized: true)
!123 = !DISubroutineType(types: !124)
!124 = !{null, !125}
!125 = !DIDerivedType(tag: DW_TAG_pointer_type, baseType: !66, size: 64, flags: DIFlagArtificial | DIFlagObjectPointer)
!126 = !DISubprogram(name: "allocator", scope: !66, file: !67, line: 115, type: !127, isLocal: false, isDefinition: false, scopeLine: 115, flags: DIFlagPublic | DIFlagPrototyped, isOptimized: true)
!127 = !DISubroutineType(types: !128)
!128 = !{null, !125, !129}
!129 = !DIDerivedType(tag: DW_TAG_reference_type, baseType: !130, size: 64)
!130 = !DIDerivedType(tag: DW_TAG_const_type, baseType: !66)
!131 = !DISubprogram(name: "~allocator", scope: !66, file: !67, line: 121, type: !123, isLocal: false, isDefinition: false, scopeLine: 121, flags: DIFlagPublic | DIFlagPrototyped, isOptimized: true)
!132 = !DIDerivedType(tag: DW_TAG_typedef, name: "size_type", scope: !59, file: !58, line: 204, baseType: !133)
!133 = !DIDerivedType(tag: DW_TAG_typedef, name: "size_type", scope: !66, file: !67, line: 95, baseType: !103)
!134 = !DISubprogram(name: "deallocate", linkageName: "_ZN9__gnu_cxx14__alloc_traitsISaI6recordEE10deallocateERS2_PS1_m", scope: !59, file: !58, line: 211, type: !135, isLocal: false, isDefinition: false, scopeLine: 211, flags: DIFlagPrototyped, isOptimized: true)
!135 = !DISubroutineType(types: !136)
!136 = !{null, !65, !57, !132}
!137 = !DISubprogram(name: "destroy", linkageName: "_ZN9__gnu_cxx14__alloc_traitsISaI6recordEE7destroyERS2_PS1_", scope: !59, file: !58, line: 218, type: !138, isLocal: false, isDefinition: false, scopeLine: 218, flags: DIFlagPrototyped, isOptimized: true)
!138 = !DISubroutineType(types: !139)
!139 = !{null, !65, !57}
!140 = !DISubprogram(name: "max_size", linkageName: "_ZN9__gnu_cxx14__alloc_traitsISaI6recordEE8max_sizeERKS2_", scope: !59, file: !58, line: 221, type: !141, isLocal: false, isDefinition: false, scopeLine: 221, flags: DIFlagPrototyped, isOptimized: true)
!141 = !DISubroutineType(types: !142)
!142 = !{!132, !129}
!143 = !DISubprogram(name: "_S_select_on_copy", linkageName: "_ZN9__gnu_cxx14__alloc_traitsISaI6recordEE17_S_select_on_copyERKS2_", scope: !59, file: !58, line: 224, type: !144, isLocal: false, isDefinition: false, scopeLine: 224, flags: DIFlagPrototyped, isOptimized: true)
!144 = !DISubroutineType(types: !145)
!145 = !{!129, !129}
!146 = !DISubprogram(name: "_S_on_swap", linkageName: "_ZN9__gnu_cxx14__alloc_traitsISaI6recordEE10_S_on_swapERS2_S4_", scope: !59, file: !58, line: 226, type: !147, isLocal: false, isDefinition: false, scopeLine: 226, flags: DIFlagPrototyped, isOptimized: true)
!147 = !DISubroutineType(types: !148)
!148 = !{null, !65, !65}
!149 = !{!150}
!150 = !DITemplateTypeParameter(name: "_Alloc", type: !66)
!151 = !DIDerivedType(tag: DW_TAG_typedef, name: "pointer", scope: !66, file: !67, line: 97, baseType: !87)
!152 = !DIDerivedType(tag: DW_TAG_member, name: "_M_finish", scope: !52, file: !48, line: 83, baseType: !56, size: 64, offset: 64)
!153 = !DIDerivedType(tag: DW_TAG_member, name: "_M_end_of_storage", scope: !52, file: !48, line: 84, baseType: !56, size: 64, offset: 128)
!154 = !DISubprogram(name: "_Vector_impl", scope: !52, file: !48, line: 86, type: !155, isLocal: false, isDefinition: false, scopeLine: 86, flags: DIFlagPrototyped, isOptimized: true)
!155 = !DISubroutineType(types: !156)
!156 = !{null, !157}
!157 = !DIDerivedType(tag: DW_TAG_pointer_type, baseType: !52, size: 64, flags: DIFlagArtificial | DIFlagObjectPointer)
!158 = !DISubprogram(name: "_Vector_impl", scope: !52, file: !48, line: 90, type: !159, isLocal: false, isDefinition: false, scopeLine: 90, flags: DIFlagPrototyped, isOptimized: true)
!159 = !DISubroutineType(types: !160)
!160 = !{null, !157, !161}
!161 = !DIDerivedType(tag: DW_TAG_reference_type, baseType: !162, size: 64)
!162 = !DIDerivedType(tag: DW_TAG_const_type, baseType: !47)
!163 = !DISubprogram(name: "_M_swap_data", linkageName: "_ZNSt12_Vector_baseI6recordSaIS0_EE12_Vector_impl12_M_swap_dataERS3_", scope: !52, file: !48, line: 101, type: !164, isLocal: false, isDefinition: false, scopeLine: 101, flags: DIFlagPrototyped, isOptimized: true)
!164 = !DISubroutineType(types: !165)
!165 = !{null, !157, !166}
!166 = !DIDerivedType(tag: DW_TAG_reference_type, baseType: !52, size: 64)
!167 = !DISubprogram(name: "_M_get_Tp_allocator", linkageName: "_ZNSt12_Vector_baseI6recordSaIS0_EE19_M_get_Tp_allocatorEv", scope: !49, file: !48, line: 113, type: !168, isLocal: false, isDefinition: false, scopeLine: 113, flags: DIFlagPrototyped, isOptimized: true)
!168 = !DISubroutineType(types: !169)
!169 = !{!170, !171}
!170 = !DIDerivedType(tag: DW_TAG_reference_type, baseType: !47, size: 64)
!171 = !DIDerivedType(tag: DW_TAG_pointer_type, baseType: !49, size: 64, flags: DIFlagArtificial | DIFlagObjectPointer)
!172 = !DISubprogram(name: "_M_get_Tp_allocator", linkageName: "_ZNKSt12_Vector_baseI6recordSaIS0_EE19_M_get_Tp_allocatorEv", scope: !49, file: !48, line: 117, type: !173, isLocal: false, isDefinition: false, scopeLine: 117, flags: DIFlagPrototyped, isOptimized: true)
!173 = !DISubroutineType(types: !174)
!174 = !{!161, !175}
!175 = !DIDerivedType(tag: DW_TAG_pointer_type, baseType: !176, size: 64, flags: DIFlagArtificial | DIFlagObjectPointer)
!176 = !DIDerivedType(tag: DW_TAG_const_type, baseType: !49)
!177 = !DISubprogram(name: "get_allocator", linkageName: "_ZNKSt12_Vector_baseI6recordSaIS0_EE13get_allocatorEv", scope: !49, file: !48, line: 121, type: !178, isLocal: false, isDefinition: false, scopeLine: 121, flags: DIFlagPrototyped, isOptimized: true)
!178 = !DISubroutineType(types: !179)
!179 = !{!180, !175}
!180 = !DIDerivedType(tag: DW_TAG_typedef, name: "allocator_type", scope: !49, file: !48, line: 110, baseType: !66)
!181 = !DISubprogram(name: "_Vector_base", scope: !49, file: !48, line: 124, type: !182, isLocal: false, isDefinition: false, scopeLine: 124, flags: DIFlagPrototyped, isOptimized: true)
!182 = !DISubroutineType(types: !183)
!183 = !{null, !171}
!184 = !DISubprogram(name: "_Vector_base", scope: !49, file: !48, line: 127, type: !185, isLocal: false, isDefinition: false, scopeLine: 127, flags: DIFlagPrototyped, isOptimized: true)
!185 = !DISubroutineType(types: !186)
!186 = !{null, !171, !187}
!187 = !DIDerivedType(tag: DW_TAG_reference_type, baseType: !188, size: 64)
!188 = !DIDerivedType(tag: DW_TAG_const_type, baseType: !180)
!189 = !DISubprogram(name: "_Vector_base", scope: !49, file: !48, line: 130, type: !190, isLocal: false, isDefinition: false, scopeLine: 130, flags: DIFlagPrototyped, isOptimized: true)
!190 = !DISubroutineType(types: !191)
!191 = !{null, !171, !103}
!192 = !DISubprogram(name: "_Vector_base", scope: !49, file: !48, line: 134, type: !193, isLocal: false, isDefinition: false, scopeLine: 134, flags: DIFlagPrototyped, isOptimized: true)
!193 = !DISubroutineType(types: !194)
!194 = !{null, !171, !103, !187}
!195 = !DISubprogram(name: "~_Vector_base", scope: !49, file: !48, line: 159, type: !182, isLocal: false, isDefinition: false, scopeLine: 159, flags: DIFlagPrototyped, isOptimized: true)
!196 = !DISubprogram(name: "_M_allocate", linkageName: "_ZNSt12_Vector_baseI6recordSaIS0_EE11_M_allocateEm", scope: !49, file: !48, line: 167, type: !197, isLocal: false, isDefinition: false, scopeLine: 167, flags: DIFlagPrototyped, isOptimized: true)
!197 = !DISubroutineType(types: !198)
!198 = !{!56, !171, !103}
!199 = !DISubprogram(name: "_M_deallocate", linkageName: "_ZNSt12_Vector_baseI6recordSaIS0_EE13_M_deallocateEPS0_m", scope: !49, file: !48, line: 171, type: !200, isLocal: false, isDefinition: false, scopeLine: 171, flags: DIFlagPrototyped, isOptimized: true)
!200 = !DISubroutineType(types: !201)
!201 = !{null, !171, !56, !103}
!202 = !DISubprogram(name: "_M_create_storage", linkageName: "_ZNSt12_Vector_baseI6recordSaIS0_EE17_M_create_storageEm", scope: !49, file: !48, line: 179, type: !190, isLocal: false, isDefinition: false, scopeLine: 179, flags: DIFlagPrivate | DIFlagPrototyped, isOptimized: true)
!203 = !{!121, !150}
!204 = !DIDerivedType(tag: DW_TAG_typedef, name: "other", scope: !205, file: !58, line: 235, baseType: !206)
!205 = distinct !DICompositeType(tag: DW_TAG_structure_type, name: "rebind<record>", scope: !59, file: !58, line: 234, size: 8, elements: !16, templateParams: !120, identifier: "_ZTSN9__gnu_cxx14__alloc_traitsISaI6recordEE6rebindIS1_EE")
!206 = !DIDerivedType(tag: DW_TAG_typedef, name: "other", scope: !207, file: !67, line: 105, baseType: !66)
!207 = distinct !DICompositeType(tag: DW_TAG_structure_type, name: "rebind<record>", scope: !66, file: !67, line: 104, size: 8, elements: !16, templateParams: !208, identifier: "_ZTSNSaI6recordE6rebindIS_EE")
!208 = !{!209}
!209 = !DITemplateTypeParameter(name: "_Tp1", type: !30)
!210 = !DIDerivedType(tag: DW_TAG_pointer_type, baseType: !211, size: 64)
!211 = !DIDerivedType(tag: DW_TAG_typedef, name: "_Tp_alloc_type", scope: !212, file: !48, line: 75, baseType: !357)
!212 = distinct !DICompositeType(tag: DW_TAG_structure_type, name: "_Vector_base<latLong, std::allocator<latLong> >", scope: !14, file: !48, line: 72, size: 192, elements: !213, templateParams: !356, identifier: "_ZTSSt12_Vector_baseI7latLongSaIS0_EE")
!213 = !{!214, !320, !325, !330, !334, !337, !342, !345, !348, !349, !352, !355}
!214 = !DIDerivedType(tag: DW_TAG_member, name: "_M_impl", scope: !212, file: !48, line: 164, baseType: !215, size: 192)
!215 = distinct !DICompositeType(tag: DW_TAG_structure_type, name: "_Vector_impl", scope: !212, file: !48, line: 79, size: 192, elements: !216, identifier: "_ZTSNSt12_Vector_baseI7latLongSaIS0_EE12_Vector_implE")
!216 = !{!217, !218, !305, !306, !307, !311, !316}
!217 = !DIDerivedType(tag: DW_TAG_inheritance, scope: !215, baseType: !211)
!218 = !DIDerivedType(tag: DW_TAG_member, name: "_M_start", scope: !215, file: !48, line: 82, baseType: !219, size: 64)
!219 = !DIDerivedType(tag: DW_TAG_typedef, name: "pointer", scope: !212, file: !48, line: 77, baseType: !220)
!220 = !DIDerivedType(tag: DW_TAG_typedef, name: "pointer", scope: !221, file: !58, line: 199, baseType: !304)
!221 = distinct !DICompositeType(tag: DW_TAG_structure_type, name: "__alloc_traits<std::allocator<latLong> >", scope: !60, file: !58, line: 121, size: 8, elements: !222, templateParams: !302, identifier: "_ZTSN9__gnu_cxx14__alloc_traitsISaI7latLongEEE")
!222 = !{!223, !287, !290, !293, !296, !299}
!223 = !DISubprogram(name: "allocate", linkageName: "_ZN9__gnu_cxx14__alloc_traitsISaI7latLongEE8allocateERS2_m", scope: !221, file: !58, line: 208, type: !224, isLocal: false, isDefinition: false, scopeLine: 208, flags: DIFlagPrototyped, isOptimized: true)
!224 = !DISubroutineType(types: !225)
!225 = !{!220, !226, !285}
!226 = !DIDerivedType(tag: DW_TAG_reference_type, baseType: !227, size: 64)
!227 = distinct !DICompositeType(tag: DW_TAG_class_type, name: "allocator<latLong>", scope: !14, file: !67, line: 92, size: 8, elements: !228, templateParams: !273, identifier: "_ZTSSaI7latLongE")
!228 = !{!229, !275, !279, !284}
!229 = !DIDerivedType(tag: DW_TAG_inheritance, scope: !227, baseType: !230, flags: DIFlagPublic)
!230 = distinct !DICompositeType(tag: DW_TAG_class_type, name: "new_allocator<latLong>", scope: !60, file: !71, line: 58, size: 8, elements: !231, templateParams: !273, identifier: "_ZTSN9__gnu_cxx13new_allocatorI7latLongEE")
!231 = !{!232, !236, !241, !242, !250, !258, !261, !264, !267, !270}
!232 = !DISubprogram(name: "new_allocator", scope: !230, file: !71, line: 79, type: !233, isLocal: false, isDefinition: false, scopeLine: 79, flags: DIFlagPublic | DIFlagPrototyped, isOptimized: true)
!233 = !DISubroutineType(types: !234)
!234 = !{null, !235}
!235 = !DIDerivedType(tag: DW_TAG_pointer_type, baseType: !230, size: 64, flags: DIFlagArtificial | DIFlagObjectPointer)
!236 = !DISubprogram(name: "new_allocator", scope: !230, file: !71, line: 81, type: !237, isLocal: false, isDefinition: false, scopeLine: 81, flags: DIFlagPublic | DIFlagPrototyped, isOptimized: true)
!237 = !DISubroutineType(types: !238)
!238 = !{null, !235, !239}
!239 = !DIDerivedType(tag: DW_TAG_reference_type, baseType: !240, size: 64)
!240 = !DIDerivedType(tag: DW_TAG_const_type, baseType: !230)
!241 = !DISubprogram(name: "~new_allocator", scope: !230, file: !71, line: 86, type: !233, isLocal: false, isDefinition: false, scopeLine: 86, flags: DIFlagPublic | DIFlagPrototyped, isOptimized: true)
!242 = !DISubprogram(name: "address", linkageName: "_ZNK9__gnu_cxx13new_allocatorI7latLongE7addressERS1_", scope: !230, file: !71, line: 89, type: !243, isLocal: false, isDefinition: false, scopeLine: 89, flags: DIFlagPublic | DIFlagPrototyped, isOptimized: true)
!243 = !DISubroutineType(types: !244)
!244 = !{!245, !247, !248}
!245 = !DIDerivedType(tag: DW_TAG_typedef, name: "pointer", scope: !230, file: !71, line: 63, baseType: !246)
!246 = !DIDerivedType(tag: DW_TAG_pointer_type, baseType: !19, size: 64)
!247 = !DIDerivedType(tag: DW_TAG_pointer_type, baseType: !240, size: 64, flags: DIFlagArtificial | DIFlagObjectPointer)
!248 = !DIDerivedType(tag: DW_TAG_typedef, name: "reference", scope: !230, file: !71, line: 65, baseType: !249)
!249 = !DIDerivedType(tag: DW_TAG_reference_type, baseType: !19, size: 64)
!250 = !DISubprogram(name: "address", linkageName: "_ZNK9__gnu_cxx13new_allocatorI7latLongE7addressERKS1_", scope: !230, file: !71, line: 93, type: !251, isLocal: false, isDefinition: false, scopeLine: 93, flags: DIFlagPublic | DIFlagPrototyped, isOptimized: true)
!251 = !DISubroutineType(types: !252)
!252 = !{!253, !247, !256}
!253 = !DIDerivedType(tag: DW_TAG_typedef, name: "const_pointer", scope: !230, file: !71, line: 64, baseType: !254)
!254 = !DIDerivedType(tag: DW_TAG_pointer_type, baseType: !255, size: 64)
!255 = !DIDerivedType(tag: DW_TAG_const_type, baseType: !19)
!256 = !DIDerivedType(tag: DW_TAG_typedef, name: "const_reference", scope: !230, file: !71, line: 66, baseType: !257)
!257 = !DIDerivedType(tag: DW_TAG_reference_type, baseType: !255, size: 64)
!258 = !DISubprogram(name: "allocate", linkageName: "_ZN9__gnu_cxx13new_allocatorI7latLongE8allocateEmPKv", scope: !230, file: !71, line: 99, type: !259, isLocal: false, isDefinition: false, scopeLine: 99, flags: DIFlagPublic | DIFlagPrototyped, isOptimized: true)
!259 = !DISubroutineType(types: !260)
!260 = !{!245, !235, !102, !106}
!261 = !DISubprogram(name: "deallocate", linkageName: "_ZN9__gnu_cxx13new_allocatorI7latLongE10deallocateEPS1_m", scope: !230, file: !71, line: 109, type: !262, isLocal: false, isDefinition: false, scopeLine: 109, flags: DIFlagPublic | DIFlagPrototyped, isOptimized: true)
!262 = !DISubroutineType(types: !263)
!263 = !{null, !235, !245, !102}
!264 = !DISubprogram(name: "max_size", linkageName: "_ZNK9__gnu_cxx13new_allocatorI7latLongE8max_sizeEv", scope: !230, file: !71, line: 113, type: !265, isLocal: false, isDefinition: false, scopeLine: 113, flags: DIFlagPublic | DIFlagPrototyped, isOptimized: true)
!265 = !DISubroutineType(types: !266)
!266 = !{!102, !247}
!267 = !DISubprogram(name: "construct", linkageName: "_ZN9__gnu_cxx13new_allocatorI7latLongE9constructEPS1_RKS1_", scope: !230, file: !71, line: 129, type: !268, isLocal: false, isDefinition: false, scopeLine: 129, flags: DIFlagPublic | DIFlagPrototyped, isOptimized: true)
!268 = !DISubroutineType(types: !269)
!269 = !{null, !235, !245, !257}
!270 = !DISubprogram(name: "destroy", linkageName: "_ZN9__gnu_cxx13new_allocatorI7latLongE7destroyEPS1_", scope: !230, file: !71, line: 133, type: !271, isLocal: false, isDefinition: false, scopeLine: 133, flags: DIFlagPublic | DIFlagPrototyped, isOptimized: true)
!271 = !DISubroutineType(types: !272)
!272 = !{null, !235, !245}
!273 = !{!274}
!274 = !DITemplateTypeParameter(name: "_Tp", type: !19)
!275 = !DISubprogram(name: "allocator", scope: !227, file: !67, line: 113, type: !276, isLocal: false, isDefinition: false, scopeLine: 113, flags: DIFlagPublic | DIFlagPrototyped, isOptimized: true)
!276 = !DISubroutineType(types: !277)
!277 = !{null, !278}
!278 = !DIDerivedType(tag: DW_TAG_pointer_type, baseType: !227, size: 64, flags: DIFlagArtificial | DIFlagObjectPointer)
!279 = !DISubprogram(name: "allocator", scope: !227, file: !67, line: 115, type: !280, isLocal: false, isDefinition: false, scopeLine: 115, flags: DIFlagPublic | DIFlagPrototyped, isOptimized: true)
!280 = !DISubroutineType(types: !281)
!281 = !{null, !278, !282}
!282 = !DIDerivedType(tag: DW_TAG_reference_type, baseType: !283, size: 64)
!283 = !DIDerivedType(tag: DW_TAG_const_type, baseType: !227)
!284 = !DISubprogram(name: "~allocator", scope: !227, file: !67, line: 121, type: !276, isLocal: false, isDefinition: false, scopeLine: 121, flags: DIFlagPublic | DIFlagPrototyped, isOptimized: true)
!285 = !DIDerivedType(tag: DW_TAG_typedef, name: "size_type", scope: !221, file: !58, line: 204, baseType: !286)
!286 = !DIDerivedType(tag: DW_TAG_typedef, name: "size_type", scope: !227, file: !67, line: 95, baseType: !103)
!287 = !DISubprogram(name: "deallocate", linkageName: "_ZN9__gnu_cxx14__alloc_traitsISaI7latLongEE10deallocateERS2_PS1_m", scope: !221, file: !58, line: 211, type: !288, isLocal: false, isDefinition: false, scopeLine: 211, flags: DIFlagPrototyped, isOptimized: true)
!288 = !DISubroutineType(types: !289)
!289 = !{null, !226, !220, !285}
!290 = !DISubprogram(name: "destroy", linkageName: "_ZN9__gnu_cxx14__alloc_traitsISaI7latLongEE7destroyERS2_PS1_", scope: !221, file: !58, line: 218, type: !291, isLocal: false, isDefinition: false, scopeLine: 218, flags: DIFlagPrototyped, isOptimized: true)
!291 = !DISubroutineType(types: !292)
!292 = !{null, !226, !220}
!293 = !DISubprogram(name: "max_size", linkageName: "_ZN9__gnu_cxx14__alloc_traitsISaI7latLongEE8max_sizeERKS2_", scope: !221, file: !58, line: 221, type: !294, isLocal: false, isDefinition: false, scopeLine: 221, flags: DIFlagPrototyped, isOptimized: true)
!294 = !DISubroutineType(types: !295)
!295 = !{!285, !282}
!296 = !DISubprogram(name: "_S_select_on_copy", linkageName: "_ZN9__gnu_cxx14__alloc_traitsISaI7latLongEE17_S_select_on_copyERKS2_", scope: !221, file: !58, line: 224, type: !297, isLocal: false, isDefinition: false, scopeLine: 224, flags: DIFlagPrototyped, isOptimized: true)
!297 = !DISubroutineType(types: !298)
!298 = !{!282, !282}
!299 = !DISubprogram(name: "_S_on_swap", linkageName: "_ZN9__gnu_cxx14__alloc_traitsISaI7latLongEE10_S_on_swapERS2_S4_", scope: !221, file: !58, line: 226, type: !300, isLocal: false, isDefinition: false, scopeLine: 226, flags: DIFlagPrototyped, isOptimized: true)
!300 = !DISubroutineType(types: !301)
!301 = !{null, !226, !226}
!302 = !{!303}
!303 = !DITemplateTypeParameter(name: "_Alloc", type: !227)
!304 = !DIDerivedType(tag: DW_TAG_typedef, name: "pointer", scope: !227, file: !67, line: 97, baseType: !246)
!305 = !DIDerivedType(tag: DW_TAG_member, name: "_M_finish", scope: !215, file: !48, line: 83, baseType: !219, size: 64, offset: 64)
!306 = !DIDerivedType(tag: DW_TAG_member, name: "_M_end_of_storage", scope: !215, file: !48, line: 84, baseType: !219, size: 64, offset: 128)
!307 = !DISubprogram(name: "_Vector_impl", scope: !215, file: !48, line: 86, type: !308, isLocal: false, isDefinition: false, scopeLine: 86, flags: DIFlagPrototyped, isOptimized: true)
!308 = !DISubroutineType(types: !309)
!309 = !{null, !310}
!310 = !DIDerivedType(tag: DW_TAG_pointer_type, baseType: !215, size: 64, flags: DIFlagArtificial | DIFlagObjectPointer)
!311 = !DISubprogram(name: "_Vector_impl", scope: !215, file: !48, line: 90, type: !312, isLocal: false, isDefinition: false, scopeLine: 90, flags: DIFlagPrototyped, isOptimized: true)
!312 = !DISubroutineType(types: !313)
!313 = !{null, !310, !314}
!314 = !DIDerivedType(tag: DW_TAG_reference_type, baseType: !315, size: 64)
!315 = !DIDerivedType(tag: DW_TAG_const_type, baseType: !211)
!316 = !DISubprogram(name: "_M_swap_data", linkageName: "_ZNSt12_Vector_baseI7latLongSaIS0_EE12_Vector_impl12_M_swap_dataERS3_", scope: !215, file: !48, line: 101, type: !317, isLocal: false, isDefinition: false, scopeLine: 101, flags: DIFlagPrototyped, isOptimized: true)
!317 = !DISubroutineType(types: !318)
!318 = !{null, !310, !319}
!319 = !DIDerivedType(tag: DW_TAG_reference_type, baseType: !215, size: 64)
!320 = !DISubprogram(name: "_M_get_Tp_allocator", linkageName: "_ZNSt12_Vector_baseI7latLongSaIS0_EE19_M_get_Tp_allocatorEv", scope: !212, file: !48, line: 113, type: !321, isLocal: false, isDefinition: false, scopeLine: 113, flags: DIFlagPrototyped, isOptimized: true)
!321 = !DISubroutineType(types: !322)
!322 = !{!323, !324}
!323 = !DIDerivedType(tag: DW_TAG_reference_type, baseType: !211, size: 64)
!324 = !DIDerivedType(tag: DW_TAG_pointer_type, baseType: !212, size: 64, flags: DIFlagArtificial | DIFlagObjectPointer)
!325 = !DISubprogram(name: "_M_get_Tp_allocator", linkageName: "_ZNKSt12_Vector_baseI7latLongSaIS0_EE19_M_get_Tp_allocatorEv", scope: !212, file: !48, line: 117, type: !326, isLocal: false, isDefinition: false, scopeLine: 117, flags: DIFlagPrototyped, isOptimized: true)
!326 = !DISubroutineType(types: !327)
!327 = !{!314, !328}
!328 = !DIDerivedType(tag: DW_TAG_pointer_type, baseType: !329, size: 64, flags: DIFlagArtificial | DIFlagObjectPointer)
!329 = !DIDerivedType(tag: DW_TAG_const_type, baseType: !212)
!330 = !DISubprogram(name: "get_allocator", linkageName: "_ZNKSt12_Vector_baseI7latLongSaIS0_EE13get_allocatorEv", scope: !212, file: !48, line: 121, type: !331, isLocal: false, isDefinition: false, scopeLine: 121, flags: DIFlagPrototyped, isOptimized: true)
!331 = !DISubroutineType(types: !332)
!332 = !{!333, !328}
!333 = !DIDerivedType(tag: DW_TAG_typedef, name: "allocator_type", scope: !212, file: !48, line: 110, baseType: !227)
!334 = !DISubprogram(name: "_Vector_base", scope: !212, file: !48, line: 124, type: !335, isLocal: false, isDefinition: false, scopeLine: 124, flags: DIFlagPrototyped, isOptimized: true)
!335 = !DISubroutineType(types: !336)
!336 = !{null, !324}
!337 = !DISubprogram(name: "_Vector_base", scope: !212, file: !48, line: 127, type: !338, isLocal: false, isDefinition: false, scopeLine: 127, flags: DIFlagPrototyped, isOptimized: true)
!338 = !DISubroutineType(types: !339)
!339 = !{null, !324, !340}
!340 = !DIDerivedType(tag: DW_TAG_reference_type, baseType: !341, size: 64)
!341 = !DIDerivedType(tag: DW_TAG_const_type, baseType: !333)
!342 = !DISubprogram(name: "_Vector_base", scope: !212, file: !48, line: 130, type: !343, isLocal: false, isDefinition: false, scopeLine: 130, flags: DIFlagPrototyped, isOptimized: true)
!343 = !DISubroutineType(types: !344)
!344 = !{null, !324, !103}
!345 = !DISubprogram(name: "_Vector_base", scope: !212, file: !48, line: 134, type: !346, isLocal: false, isDefinition: false, scopeLine: 134, flags: DIFlagPrototyped, isOptimized: true)
!346 = !DISubroutineType(types: !347)
!347 = !{null, !324, !103, !340}
!348 = !DISubprogram(name: "~_Vector_base", scope: !212, file: !48, line: 159, type: !335, isLocal: false, isDefinition: false, scopeLine: 159, flags: DIFlagPrototyped, isOptimized: true)
!349 = !DISubprogram(name: "_M_allocate", linkageName: "_ZNSt12_Vector_baseI7latLongSaIS0_EE11_M_allocateEm", scope: !212, file: !48, line: 167, type: !350, isLocal: false, isDefinition: false, scopeLine: 167, flags: DIFlagPrototyped, isOptimized: true)
!350 = !DISubroutineType(types: !351)
!351 = !{!219, !324, !103}
!352 = !DISubprogram(name: "_M_deallocate", linkageName: "_ZNSt12_Vector_baseI7latLongSaIS0_EE13_M_deallocateEPS0_m", scope: !212, file: !48, line: 171, type: !353, isLocal: false, isDefinition: false, scopeLine: 171, flags: DIFlagPrototyped, isOptimized: true)
!353 = !DISubroutineType(types: !354)
!354 = !{null, !324, !219, !103}
!355 = !DISubprogram(name: "_M_create_storage", linkageName: "_ZNSt12_Vector_baseI7latLongSaIS0_EE17_M_create_storageEm", scope: !212, file: !48, line: 179, type: !343, isLocal: false, isDefinition: false, scopeLine: 179, flags: DIFlagPrivate | DIFlagPrototyped, isOptimized: true)
!356 = !{!274, !303}
!357 = !DIDerivedType(tag: DW_TAG_typedef, name: "other", scope: !358, file: !58, line: 235, baseType: !359)
!358 = distinct !DICompositeType(tag: DW_TAG_structure_type, name: "rebind<latLong>", scope: !221, file: !58, line: 234, size: 8, elements: !16, templateParams: !273, identifier: "_ZTSN9__gnu_cxx14__alloc_traitsISaI7latLongEE6rebindIS1_EE")
!359 = !DIDerivedType(tag: DW_TAG_typedef, name: "other", scope: !360, file: !67, line: 105, baseType: !227)
!360 = distinct !DICompositeType(tag: DW_TAG_structure_type, name: "rebind<latLong>", scope: !227, file: !67, line: 104, size: 8, elements: !16, templateParams: !361, identifier: "_ZTSNSaI7latLongE6rebindIS_EE")
!361 = !{!362}
!362 = !DITemplateTypeParameter(name: "_Tp1", type: !19)
!363 = !DIDerivedType(tag: DW_TAG_typedef, name: "size_type", file: !48, line: 232, baseType: !103)
!364 = !DIDerivedType(tag: DW_TAG_pointer_type, baseType: !315, size: 64)
!365 = !DIDerivedType(tag: DW_TAG_typedef, name: "iterator", scope: !366, file: !48, line: 227, baseType: !507)
!366 = distinct !DICompositeType(tag: DW_TAG_class_type, name: "vector<latLong, std::allocator<latLong> >", scope: !14, file: !48, line: 210, size: 192, elements: !367, templateParams: !356, identifier: "_ZTSSt6vectorI7latLongSaIS0_EE")
!367 = !{!368, !369, !373, !379, !385, !390, !391, !395, !398, !401, !408, !409, !410, !415, !420, !421, !422, !425, !426, !429, !430, !434, !437, !443, !449, !452, !453, !454, !457, !460, !461, !462, !466, !472, !475, !476, !479, !482, !485, !488, !491, !492, !493, !494, !495, !498, !504}
!368 = !DIDerivedType(tag: DW_TAG_inheritance, scope: !366, baseType: !212, flags: DIFlagProtected)
!369 = !DISubprogram(name: "vector", scope: !366, file: !48, line: 248, type: !370, isLocal: false, isDefinition: false, scopeLine: 248, flags: DIFlagPublic | DIFlagPrototyped, isOptimized: true)
!370 = !DISubroutineType(types: !371)
!371 = !{null, !372}
!372 = !DIDerivedType(tag: DW_TAG_pointer_type, baseType: !366, size: 64, flags: DIFlagArtificial | DIFlagObjectPointer)
!373 = !DISubprogram(name: "vector", scope: !366, file: !48, line: 256, type: !374, isLocal: false, isDefinition: false, scopeLine: 256, flags: DIFlagPublic | DIFlagExplicit | DIFlagPrototyped, isOptimized: true)
!374 = !DISubroutineType(types: !375)
!375 = !{null, !372, !376}
!376 = !DIDerivedType(tag: DW_TAG_reference_type, baseType: !377, size: 64)
!377 = !DIDerivedType(tag: DW_TAG_const_type, baseType: !378)
!378 = !DIDerivedType(tag: DW_TAG_typedef, name: "allocator_type", scope: !366, file: !48, line: 234, baseType: !227)
!379 = !DISubprogram(name: "vector", scope: !366, file: !48, line: 295, type: !380, isLocal: false, isDefinition: false, scopeLine: 295, flags: DIFlagPublic | DIFlagExplicit | DIFlagPrototyped, isOptimized: true)
!380 = !DISubroutineType(types: !381)
!381 = !{null, !372, !363, !382, !376}
!382 = !DIDerivedType(tag: DW_TAG_reference_type, baseType: !383, size: 64)
!383 = !DIDerivedType(tag: DW_TAG_const_type, baseType: !384)
!384 = !DIDerivedType(tag: DW_TAG_typedef, name: "value_type", scope: !366, file: !48, line: 222, baseType: !19)
!385 = !DISubprogram(name: "vector", scope: !366, file: !48, line: 310, type: !386, isLocal: false, isDefinition: false, scopeLine: 310, flags: DIFlagPublic | DIFlagPrototyped, isOptimized: true)
!386 = !DISubroutineType(types: !387)
!387 = !{null, !372, !388}
!388 = !DIDerivedType(tag: DW_TAG_reference_type, baseType: !389, size: 64)
!389 = !DIDerivedType(tag: DW_TAG_const_type, baseType: !366)
!390 = !DISubprogram(name: "~vector", scope: !366, file: !48, line: 414, type: !370, isLocal: false, isDefinition: false, scopeLine: 414, flags: DIFlagPublic | DIFlagPrototyped, isOptimized: true)
!391 = !DISubprogram(name: "operator=", linkageName: "_ZNSt6vectorI7latLongSaIS0_EEaSERKS2_", scope: !366, file: !48, line: 427, type: !392, isLocal: false, isDefinition: false, scopeLine: 427, flags: DIFlagPublic | DIFlagPrototyped, isOptimized: true)
!392 = !DISubroutineType(types: !393)
!393 = !{!394, !372, !388}
!394 = !DIDerivedType(tag: DW_TAG_reference_type, baseType: !366, size: 64)
!395 = !DISubprogram(name: "assign", linkageName: "_ZNSt6vectorI7latLongSaIS0_EE6assignEmRKS0_", scope: !366, file: !48, line: 479, type: !396, isLocal: false, isDefinition: false, scopeLine: 479, flags: DIFlagPublic | DIFlagPrototyped, isOptimized: true)
!396 = !DISubroutineType(types: !397)
!397 = !{null, !372, !363, !382}
!398 = !DISubprogram(name: "begin", linkageName: "_ZNSt6vectorI7latLongSaIS0_EE5beginEv", scope: !366, file: !48, line: 538, type: !399, isLocal: false, isDefinition: false, scopeLine: 538, flags: DIFlagPublic | DIFlagPrototyped, isOptimized: true)
!399 = !DISubroutineType(types: !400)
!400 = !{!365, !372}
!401 = !DISubprogram(name: "begin", linkageName: "_ZNKSt6vectorI7latLongSaIS0_EE5beginEv", scope: !366, file: !48, line: 547, type: !402, isLocal: false, isDefinition: false, scopeLine: 547, flags: DIFlagPublic | DIFlagPrototyped, isOptimized: true)
!402 = !DISubroutineType(types: !403)
!403 = !{!404, !407}
!404 = !DIDerivedType(tag: DW_TAG_typedef, name: "const_iterator", scope: !366, file: !48, line: 229, baseType: !405)
!405 = !DICompositeType(tag: DW_TAG_class_type, name: "__normal_iterator<const latLong *, std::vector<latLong, std::allocator<latLong> > >", scope: !60, file: !406, line: 708, flags: DIFlagFwdDecl, identifier: "_ZTSN9__gnu_cxx17__normal_iteratorIPK7latLongSt6vectorIS1_SaIS1_EEEE")
!406 = !DIFile(filename: "/usr/lib/gcc/x86_64-linux-gnu/4.8/../../../../include/c++/4.8/bits/stl_iterator.h", directory: "/home/dshen/llvm/llvm/lib/Transforms/Hello/expr/BD_mode/nnllvm")
!407 = !DIDerivedType(tag: DW_TAG_pointer_type, baseType: !389, size: 64, flags: DIFlagArtificial | DIFlagObjectPointer)
!408 = !DISubprogram(name: "end", linkageName: "_ZNSt6vectorI7latLongSaIS0_EE3endEv", scope: !366, file: !48, line: 556, type: !399, isLocal: false, isDefinition: false, scopeLine: 556, flags: DIFlagPublic | DIFlagPrototyped, isOptimized: true)
!409 = !DISubprogram(name: "end", linkageName: "_ZNKSt6vectorI7latLongSaIS0_EE3endEv", scope: !366, file: !48, line: 565, type: !402, isLocal: false, isDefinition: false, scopeLine: 565, flags: DIFlagPublic | DIFlagPrototyped, isOptimized: true)
!410 = !DISubprogram(name: "rbegin", linkageName: "_ZNSt6vectorI7latLongSaIS0_EE6rbeginEv", scope: !366, file: !48, line: 574, type: !411, isLocal: false, isDefinition: false, scopeLine: 574, flags: DIFlagPublic | DIFlagPrototyped, isOptimized: true)
!411 = !DISubroutineType(types: !412)
!412 = !{!413, !372}
!413 = !DIDerivedType(tag: DW_TAG_typedef, name: "reverse_iterator", scope: !366, file: !48, line: 231, baseType: !414)
!414 = !DICompositeType(tag: DW_TAG_class_type, name: "reverse_iterator<__gnu_cxx::__normal_iterator<latLong *, std::vector<latLong, std::allocator<latLong> > > >", scope: !14, file: !406, line: 96, flags: DIFlagFwdDecl, identifier: "_ZTSSt16reverse_iteratorIN9__gnu_cxx17__normal_iteratorIP7latLongSt6vectorIS2_SaIS2_EEEEE")
!415 = !DISubprogram(name: "rbegin", linkageName: "_ZNKSt6vectorI7latLongSaIS0_EE6rbeginEv", scope: !366, file: !48, line: 583, type: !416, isLocal: false, isDefinition: false, scopeLine: 583, flags: DIFlagPublic | DIFlagPrototyped, isOptimized: true)
!416 = !DISubroutineType(types: !417)
!417 = !{!418, !407}
!418 = !DIDerivedType(tag: DW_TAG_typedef, name: "const_reverse_iterator", scope: !366, file: !48, line: 230, baseType: !419)
!419 = !DICompositeType(tag: DW_TAG_class_type, name: "reverse_iterator<__gnu_cxx::__normal_iterator<const latLong *, std::vector<latLong, std::allocator<latLong> > > >", scope: !14, file: !406, line: 96, flags: DIFlagFwdDecl, identifier: "_ZTSSt16reverse_iteratorIN9__gnu_cxx17__normal_iteratorIPK7latLongSt6vectorIS2_SaIS2_EEEEE")
!420 = !DISubprogram(name: "rend", linkageName: "_ZNSt6vectorI7latLongSaIS0_EE4rendEv", scope: !366, file: !48, line: 592, type: !411, isLocal: false, isDefinition: false, scopeLine: 592, flags: DIFlagPublic | DIFlagPrototyped, isOptimized: true)
!421 = !DISubprogram(name: "rend", linkageName: "_ZNKSt6vectorI7latLongSaIS0_EE4rendEv", scope: !366, file: !48, line: 601, type: !416, isLocal: false, isDefinition: false, scopeLine: 601, flags: DIFlagPublic | DIFlagPrototyped, isOptimized: true)
!422 = !DISubprogram(name: "size", linkageName: "_ZNKSt6vectorI7latLongSaIS0_EE4sizeEv", scope: !366, file: !48, line: 645, type: !423, isLocal: false, isDefinition: false, scopeLine: 645, flags: DIFlagPublic | DIFlagPrototyped, isOptimized: true)
!423 = !DISubroutineType(types: !424)
!424 = !{!363, !407}
!425 = !DISubprogram(name: "max_size", linkageName: "_ZNKSt6vectorI7latLongSaIS0_EE8max_sizeEv", scope: !366, file: !48, line: 650, type: !423, isLocal: false, isDefinition: false, scopeLine: 650, flags: DIFlagPublic | DIFlagPrototyped, isOptimized: true)
!426 = !DISubprogram(name: "resize", linkageName: "_ZNSt6vectorI7latLongSaIS0_EE6resizeEmS0_", scope: !366, file: !48, line: 704, type: !427, isLocal: false, isDefinition: false, scopeLine: 704, flags: DIFlagPublic | DIFlagPrototyped, isOptimized: true)
!427 = !DISubroutineType(types: !428)
!428 = !{null, !372, !363, !384}
!429 = !DISubprogram(name: "capacity", linkageName: "_ZNKSt6vectorI7latLongSaIS0_EE8capacityEv", scope: !366, file: !48, line: 725, type: !423, isLocal: false, isDefinition: false, scopeLine: 725, flags: DIFlagPublic | DIFlagPrototyped, isOptimized: true)
!430 = !DISubprogram(name: "empty", linkageName: "_ZNKSt6vectorI7latLongSaIS0_EE5emptyEv", scope: !366, file: !48, line: 734, type: !431, isLocal: false, isDefinition: false, scopeLine: 734, flags: DIFlagPublic | DIFlagPrototyped, isOptimized: true)
!431 = !DISubroutineType(types: !432)
!432 = !{!433, !407}
!433 = !DIBasicType(name: "bool", size: 8, encoding: DW_ATE_boolean)
!434 = !DISubprogram(name: "reserve", linkageName: "_ZNSt6vectorI7latLongSaIS0_EE7reserveEm", scope: !366, file: !48, line: 755, type: !435, isLocal: false, isDefinition: false, scopeLine: 755, flags: DIFlagPublic | DIFlagPrototyped, isOptimized: true)
!435 = !DISubroutineType(types: !436)
!436 = !{null, !372, !363}
!437 = !DISubprogram(name: "operator[]", linkageName: "_ZNSt6vectorI7latLongSaIS0_EEixEm", scope: !366, file: !48, line: 770, type: !438, isLocal: false, isDefinition: false, scopeLine: 770, flags: DIFlagPublic | DIFlagPrototyped, isOptimized: true)
!438 = !DISubroutineType(types: !439)
!439 = !{!440, !372, !363}
!440 = !DIDerivedType(tag: DW_TAG_typedef, name: "reference", scope: !366, file: !48, line: 225, baseType: !441)
!441 = !DIDerivedType(tag: DW_TAG_typedef, name: "reference", scope: !221, file: !58, line: 202, baseType: !442)
!442 = !DIDerivedType(tag: DW_TAG_typedef, name: "reference", scope: !227, file: !67, line: 99, baseType: !249)
!443 = !DISubprogram(name: "operator[]", linkageName: "_ZNKSt6vectorI7latLongSaIS0_EEixEm", scope: !366, file: !48, line: 785, type: !444, isLocal: false, isDefinition: false, scopeLine: 785, flags: DIFlagPublic | DIFlagPrototyped, isOptimized: true)
!444 = !DISubroutineType(types: !445)
!445 = !{!446, !407, !363}
!446 = !DIDerivedType(tag: DW_TAG_typedef, name: "const_reference", scope: !366, file: !48, line: 226, baseType: !447)
!447 = !DIDerivedType(tag: DW_TAG_typedef, name: "const_reference", scope: !221, file: !58, line: 203, baseType: !448)
!448 = !DIDerivedType(tag: DW_TAG_typedef, name: "const_reference", scope: !227, file: !67, line: 100, baseType: !257)
!449 = !DISubprogram(name: "_M_range_check", linkageName: "_ZNKSt6vectorI7latLongSaIS0_EE14_M_range_checkEm", scope: !366, file: !48, line: 791, type: !450, isLocal: false, isDefinition: false, scopeLine: 791, flags: DIFlagProtected | DIFlagPrototyped, isOptimized: true)
!450 = !DISubroutineType(types: !451)
!451 = !{null, !407, !363}
!452 = !DISubprogram(name: "at", linkageName: "_ZNSt6vectorI7latLongSaIS0_EE2atEm", scope: !366, file: !48, line: 810, type: !438, isLocal: false, isDefinition: false, scopeLine: 810, flags: DIFlagPublic | DIFlagPrototyped, isOptimized: true)
!453 = !DISubprogram(name: "at", linkageName: "_ZNKSt6vectorI7latLongSaIS0_EE2atEm", scope: !366, file: !48, line: 828, type: !444, isLocal: false, isDefinition: false, scopeLine: 828, flags: DIFlagPublic | DIFlagPrototyped, isOptimized: true)
!454 = !DISubprogram(name: "front", linkageName: "_ZNSt6vectorI7latLongSaIS0_EE5frontEv", scope: !366, file: !48, line: 839, type: !455, isLocal: false, isDefinition: false, scopeLine: 839, flags: DIFlagPublic | DIFlagPrototyped, isOptimized: true)
!455 = !DISubroutineType(types: !456)
!456 = !{!440, !372}
!457 = !DISubprogram(name: "front", linkageName: "_ZNKSt6vectorI7latLongSaIS0_EE5frontEv", scope: !366, file: !48, line: 847, type: !458, isLocal: false, isDefinition: false, scopeLine: 847, flags: DIFlagPublic | DIFlagPrototyped, isOptimized: true)
!458 = !DISubroutineType(types: !459)
!459 = !{!446, !407}
!460 = !DISubprogram(name: "back", linkageName: "_ZNSt6vectorI7latLongSaIS0_EE4backEv", scope: !366, file: !48, line: 855, type: !455, isLocal: false, isDefinition: false, scopeLine: 855, flags: DIFlagPublic | DIFlagPrototyped, isOptimized: true)
!461 = !DISubprogram(name: "back", linkageName: "_ZNKSt6vectorI7latLongSaIS0_EE4backEv", scope: !366, file: !48, line: 863, type: !458, isLocal: false, isDefinition: false, scopeLine: 863, flags: DIFlagPublic | DIFlagPrototyped, isOptimized: true)
!462 = !DISubprogram(name: "data", linkageName: "_ZNSt6vectorI7latLongSaIS0_EE4dataEv", scope: !366, file: !48, line: 878, type: !463, isLocal: false, isDefinition: false, scopeLine: 878, flags: DIFlagPublic | DIFlagPrototyped, isOptimized: true)
!463 = !DISubroutineType(types: !464)
!464 = !{!465, !372}
!465 = !DIDerivedType(tag: DW_TAG_typedef, name: "pointer", scope: !366, file: !48, line: 223, baseType: !219)
!466 = !DISubprogram(name: "data", linkageName: "_ZNKSt6vectorI7latLongSaIS0_EE4dataEv", scope: !366, file: !48, line: 886, type: !467, isLocal: false, isDefinition: false, scopeLine: 886, flags: DIFlagPublic | DIFlagPrototyped, isOptimized: true)
!467 = !DISubroutineType(types: !468)
!468 = !{!469, !407}
!469 = !DIDerivedType(tag: DW_TAG_typedef, name: "const_pointer", scope: !366, file: !48, line: 224, baseType: !470)
!470 = !DIDerivedType(tag: DW_TAG_typedef, name: "const_pointer", scope: !221, file: !58, line: 200, baseType: !471)
!471 = !DIDerivedType(tag: DW_TAG_typedef, name: "const_pointer", scope: !227, file: !67, line: 98, baseType: !254)
!472 = !DISubprogram(name: "push_back", linkageName: "_ZNSt6vectorI7latLongSaIS0_EE9push_backERKS0_", scope: !366, file: !48, line: 901, type: !473, isLocal: false, isDefinition: false, scopeLine: 901, flags: DIFlagPublic | DIFlagPrototyped, isOptimized: true)
!473 = !DISubroutineType(types: !474)
!474 = !{null, !372, !382}
!475 = !DISubprogram(name: "pop_back", linkageName: "_ZNSt6vectorI7latLongSaIS0_EE8pop_backEv", scope: !366, file: !48, line: 937, type: !370, isLocal: false, isDefinition: false, scopeLine: 937, flags: DIFlagPublic | DIFlagPrototyped, isOptimized: true)
!476 = !DISubprogram(name: "insert", linkageName: "_ZNSt6vectorI7latLongSaIS0_EE6insertEN9__gnu_cxx17__normal_iteratorIPS0_S2_EERKS0_", scope: !366, file: !48, line: 973, type: !477, isLocal: false, isDefinition: false, scopeLine: 973, flags: DIFlagPublic | DIFlagPrototyped, isOptimized: true)
!477 = !DISubroutineType(types: !478)
!478 = !{!365, !372, !365, !382}
!479 = !DISubprogram(name: "insert", linkageName: "_ZNSt6vectorI7latLongSaIS0_EE6insertEN9__gnu_cxx17__normal_iteratorIPS0_S2_EEmRKS0_", scope: !366, file: !48, line: 1023, type: !480, isLocal: false, isDefinition: false, scopeLine: 1023, flags: DIFlagPublic | DIFlagPrototyped, isOptimized: true)
!480 = !DISubroutineType(types: !481)
!481 = !{null, !372, !365, !363, !382}
!482 = !DISubprogram(name: "erase", linkageName: "_ZNSt6vectorI7latLongSaIS0_EE5eraseEN9__gnu_cxx17__normal_iteratorIPS0_S2_EE", scope: !366, file: !48, line: 1075, type: !483, isLocal: false, isDefinition: false, scopeLine: 1075, flags: DIFlagPublic | DIFlagPrototyped, isOptimized: true)
!483 = !DISubroutineType(types: !484)
!484 = !{!365, !372, !365}
!485 = !DISubprogram(name: "erase", linkageName: "_ZNSt6vectorI7latLongSaIS0_EE5eraseEN9__gnu_cxx17__normal_iteratorIPS0_S2_EES6_", scope: !366, file: !48, line: 1096, type: !486, isLocal: false, isDefinition: false, scopeLine: 1096, flags: DIFlagPublic | DIFlagPrototyped, isOptimized: true)
!486 = !DISubroutineType(types: !487)
!487 = !{!365, !372, !365, !365}
!488 = !DISubprogram(name: "swap", linkageName: "_ZNSt6vectorI7latLongSaIS0_EE4swapERS2_", scope: !366, file: !48, line: 1108, type: !489, isLocal: false, isDefinition: false, scopeLine: 1108, flags: DIFlagPublic | DIFlagPrototyped, isOptimized: true)
!489 = !DISubroutineType(types: !490)
!490 = !{null, !372, !394}
!491 = !DISubprogram(name: "clear", linkageName: "_ZNSt6vectorI7latLongSaIS0_EE5clearEv", scope: !366, file: !48, line: 1125, type: !370, isLocal: false, isDefinition: false, scopeLine: 1125, flags: DIFlagPublic | DIFlagPrototyped, isOptimized: true)
!492 = !DISubprogram(name: "_M_fill_initialize", linkageName: "_ZNSt6vectorI7latLongSaIS0_EE18_M_fill_initializeEmRKS0_", scope: !366, file: !48, line: 1212, type: !396, isLocal: false, isDefinition: false, scopeLine: 1212, flags: DIFlagProtected | DIFlagPrototyped, isOptimized: true)
!493 = !DISubprogram(name: "_M_fill_assign", linkageName: "_ZNSt6vectorI7latLongSaIS0_EE14_M_fill_assignEmRKS0_", scope: !366, file: !48, line: 1268, type: !396, isLocal: false, isDefinition: false, scopeLine: 1268, flags: DIFlagProtected | DIFlagPrototyped, isOptimized: true)
!494 = !DISubprogram(name: "_M_fill_insert", linkageName: "_ZNSt6vectorI7latLongSaIS0_EE14_M_fill_insertEN9__gnu_cxx17__normal_iteratorIPS0_S2_EEmRKS0_", scope: !366, file: !48, line: 1309, type: !480, isLocal: false, isDefinition: false, scopeLine: 1309, flags: DIFlagProtected | DIFlagPrototyped, isOptimized: true)
!495 = !DISubprogram(name: "_M_insert_aux", linkageName: "_ZNSt6vectorI7latLongSaIS0_EE13_M_insert_auxEN9__gnu_cxx17__normal_iteratorIPS0_S2_EERKS0_", scope: !366, file: !48, line: 1323, type: !496, isLocal: false, isDefinition: false, scopeLine: 1323, flags: DIFlagProtected | DIFlagPrototyped, isOptimized: true)
!496 = !DISubroutineType(types: !497)
!497 = !{null, !372, !365, !382}
!498 = !DISubprogram(name: "_M_check_len", linkageName: "_ZNKSt6vectorI7latLongSaIS0_EE12_M_check_lenEmPKc", scope: !366, file: !48, line: 1336, type: !499, isLocal: false, isDefinition: false, scopeLine: 1336, flags: DIFlagProtected | DIFlagPrototyped, isOptimized: true)
!499 = !DISubroutineType(types: !500)
!500 = !{!501, !407, !363, !502}
!501 = !DIDerivedType(tag: DW_TAG_typedef, name: "size_type", scope: !366, file: !48, line: 232, baseType: !103)
!502 = !DIDerivedType(tag: DW_TAG_pointer_type, baseType: !503, size: 64)
!503 = !DIDerivedType(tag: DW_TAG_const_type, baseType: !34)
!504 = !DISubprogram(name: "_M_erase_at_end", linkageName: "_ZNSt6vectorI7latLongSaIS0_EE15_M_erase_at_endEPS0_", scope: !366, file: !48, line: 1350, type: !505, isLocal: false, isDefinition: false, scopeLine: 1350, flags: DIFlagProtected | DIFlagPrototyped, isOptimized: true)
!505 = !DISubroutineType(types: !506)
!506 = !{null, !372, !465}
!507 = distinct !DICompositeType(tag: DW_TAG_class_type, name: "__normal_iterator<latLong *, std::vector<latLong, std::allocator<latLong> > >", scope: !60, file: !406, line: 708, size: 64, elements: !508, templateParams: !564, identifier: "_ZTSN9__gnu_cxx17__normal_iteratorIP7latLongSt6vectorIS1_SaIS1_EEEE")
!508 = !{!509, !510, !514, !519, !530, !535, !539, !542, !543, !544, !553, !556, !559, !560, !561}
!509 = !DIDerivedType(tag: DW_TAG_member, name: "_M_current", scope: !507, file: !406, line: 711, baseType: !246, size: 64, flags: DIFlagProtected)
!510 = !DISubprogram(name: "__normal_iterator", scope: !507, file: !406, line: 723, type: !511, isLocal: false, isDefinition: false, scopeLine: 723, flags: DIFlagPublic | DIFlagPrototyped, isOptimized: true)
!511 = !DISubroutineType(types: !512)
!512 = !{null, !513}
!513 = !DIDerivedType(tag: DW_TAG_pointer_type, baseType: !507, size: 64, flags: DIFlagArtificial | DIFlagObjectPointer)
!514 = !DISubprogram(name: "__normal_iterator", scope: !507, file: !406, line: 726, type: !515, isLocal: false, isDefinition: false, scopeLine: 726, flags: DIFlagPublic | DIFlagExplicit | DIFlagPrototyped, isOptimized: true)
!515 = !DISubroutineType(types: !516)
!516 = !{null, !513, !517}
!517 = !DIDerivedType(tag: DW_TAG_reference_type, baseType: !518, size: 64)
!518 = !DIDerivedType(tag: DW_TAG_const_type, baseType: !246)
!519 = !DISubprogram(name: "operator*", linkageName: "_ZNK9__gnu_cxx17__normal_iteratorIP7latLongSt6vectorIS1_SaIS1_EEEdeEv", scope: !507, file: !406, line: 738, type: !520, isLocal: false, isDefinition: false, scopeLine: 738, flags: DIFlagPublic | DIFlagPrototyped, isOptimized: true)
!520 = !DISubroutineType(types: !521)
!521 = !{!522, !528}
!522 = !DIDerivedType(tag: DW_TAG_typedef, name: "reference", scope: !507, file: !406, line: 720, baseType: !523)
!523 = !DIDerivedType(tag: DW_TAG_typedef, name: "reference", scope: !525, file: !524, line: 181, baseType: !249)
!524 = !DIFile(filename: "/usr/lib/gcc/x86_64-linux-gnu/4.8/../../../../include/c++/4.8/bits/stl_iterator_base_types.h", directory: "/home/dshen/llvm/llvm/lib/Transforms/Hello/expr/BD_mode/nnllvm")
!525 = distinct !DICompositeType(tag: DW_TAG_structure_type, name: "iterator_traits<latLong *>", scope: !14, file: !524, line: 175, size: 8, elements: !16, templateParams: !526, identifier: "_ZTSSt15iterator_traitsIP7latLongE")
!526 = !{!527}
!527 = !DITemplateTypeParameter(name: "_Iterator", type: !246)
!528 = !DIDerivedType(tag: DW_TAG_pointer_type, baseType: !529, size: 64, flags: DIFlagArtificial | DIFlagObjectPointer)
!529 = !DIDerivedType(tag: DW_TAG_const_type, baseType: !507)
!530 = !DISubprogram(name: "operator->", linkageName: "_ZNK9__gnu_cxx17__normal_iteratorIP7latLongSt6vectorIS1_SaIS1_EEEptEv", scope: !507, file: !406, line: 742, type: !531, isLocal: false, isDefinition: false, scopeLine: 742, flags: DIFlagPublic | DIFlagPrototyped, isOptimized: true)
!531 = !DISubroutineType(types: !532)
!532 = !{!533, !528}
!533 = !DIDerivedType(tag: DW_TAG_typedef, name: "pointer", scope: !507, file: !406, line: 721, baseType: !534)
!534 = !DIDerivedType(tag: DW_TAG_typedef, name: "pointer", scope: !525, file: !524, line: 180, baseType: !246)
!535 = !DISubprogram(name: "operator++", linkageName: "_ZN9__gnu_cxx17__normal_iteratorIP7latLongSt6vectorIS1_SaIS1_EEEppEv", scope: !507, file: !406, line: 746, type: !536, isLocal: false, isDefinition: false, scopeLine: 746, flags: DIFlagPublic | DIFlagPrototyped, isOptimized: true)
!536 = !DISubroutineType(types: !537)
!537 = !{!538, !513}
!538 = !DIDerivedType(tag: DW_TAG_reference_type, baseType: !507, size: 64)
!539 = !DISubprogram(name: "operator++", linkageName: "_ZN9__gnu_cxx17__normal_iteratorIP7latLongSt6vectorIS1_SaIS1_EEEppEi", scope: !507, file: !406, line: 753, type: !540, isLocal: false, isDefinition: false, scopeLine: 753, flags: DIFlagPublic | DIFlagPrototyped, isOptimized: true)
!540 = !DISubroutineType(types: !541)
!541 = !{!507, !513, !45}
!542 = !DISubprogram(name: "operator--", linkageName: "_ZN9__gnu_cxx17__normal_iteratorIP7latLongSt6vectorIS1_SaIS1_EEEmmEv", scope: !507, file: !406, line: 758, type: !536, isLocal: false, isDefinition: false, scopeLine: 758, flags: DIFlagPublic | DIFlagPrototyped, isOptimized: true)
!543 = !DISubprogram(name: "operator--", linkageName: "_ZN9__gnu_cxx17__normal_iteratorIP7latLongSt6vectorIS1_SaIS1_EEEmmEi", scope: !507, file: !406, line: 765, type: !540, isLocal: false, isDefinition: false, scopeLine: 765, flags: DIFlagPublic | DIFlagPrototyped, isOptimized: true)
!544 = !DISubprogram(name: "operator[]", linkageName: "_ZNK9__gnu_cxx17__normal_iteratorIP7latLongSt6vectorIS1_SaIS1_EEEixERKl", scope: !507, file: !406, line: 770, type: !545, isLocal: false, isDefinition: false, scopeLine: 770, flags: DIFlagPublic | DIFlagPrototyped, isOptimized: true)
!545 = !DISubroutineType(types: !546)
!546 = !{!522, !528, !547}
!547 = !DIDerivedType(tag: DW_TAG_reference_type, baseType: !548, size: 64)
!548 = !DIDerivedType(tag: DW_TAG_const_type, baseType: !549)
!549 = !DIDerivedType(tag: DW_TAG_typedef, name: "difference_type", scope: !507, file: !406, line: 719, baseType: !550)
!550 = !DIDerivedType(tag: DW_TAG_typedef, name: "difference_type", scope: !525, file: !524, line: 179, baseType: !551)
!551 = !DIDerivedType(tag: DW_TAG_typedef, name: "ptrdiff_t", scope: !14, file: !104, line: 187, baseType: !552)
!552 = !DIBasicType(name: "long int", size: 64, encoding: DW_ATE_signed)
!553 = !DISubprogram(name: "operator+=", linkageName: "_ZN9__gnu_cxx17__normal_iteratorIP7latLongSt6vectorIS1_SaIS1_EEEpLERKl", scope: !507, file: !406, line: 774, type: !554, isLocal: false, isDefinition: false, scopeLine: 774, flags: DIFlagPublic | DIFlagPrototyped, isOptimized: true)
!554 = !DISubroutineType(types: !555)
!555 = !{!538, !513, !547}
!556 = !DISubprogram(name: "operator+", linkageName: "_ZNK9__gnu_cxx17__normal_iteratorIP7latLongSt6vectorIS1_SaIS1_EEEplERKl", scope: !507, file: !406, line: 778, type: !557, isLocal: false, isDefinition: false, scopeLine: 778, flags: DIFlagPublic | DIFlagPrototyped, isOptimized: true)
!557 = !DISubroutineType(types: !558)
!558 = !{!507, !528, !547}
!559 = !DISubprogram(name: "operator-=", linkageName: "_ZN9__gnu_cxx17__normal_iteratorIP7latLongSt6vectorIS1_SaIS1_EEEmIERKl", scope: !507, file: !406, line: 782, type: !554, isLocal: false, isDefinition: false, scopeLine: 782, flags: DIFlagPublic | DIFlagPrototyped, isOptimized: true)
!560 = !DISubprogram(name: "operator-", linkageName: "_ZNK9__gnu_cxx17__normal_iteratorIP7latLongSt6vectorIS1_SaIS1_EEEmiERKl", scope: !507, file: !406, line: 786, type: !557, isLocal: false, isDefinition: false, scopeLine: 786, flags: DIFlagPublic | DIFlagPrototyped, isOptimized: true)
!561 = !DISubprogram(name: "base", linkageName: "_ZNK9__gnu_cxx17__normal_iteratorIP7latLongSt6vectorIS1_SaIS1_EEE4baseEv", scope: !507, file: !406, line: 790, type: !562, isLocal: false, isDefinition: false, scopeLine: 790, flags: DIFlagPublic | DIFlagPrototyped, isOptimized: true)
!562 = !DISubroutineType(types: !563)
!563 = !{!517, !528}
!564 = !{!527, !565}
!565 = !DITemplateTypeParameter(name: "_Container", type: !366)
!566 = !DIDerivedType(tag: DW_TAG_pointer_type, baseType: !162, size: 64)
!567 = !DIDerivedType(tag: DW_TAG_typedef, name: "iterator", scope: !568, file: !48, line: 227, baseType: !705)
!568 = distinct !DICompositeType(tag: DW_TAG_class_type, name: "vector<record, std::allocator<record> >", scope: !14, file: !48, line: 210, size: 192, elements: !569, templateParams: !203, identifier: "_ZTSSt6vectorI6recordSaIS0_EE")
!569 = !{!570, !571, !575, !581, !587, !592, !593, !597, !600, !603, !609, !610, !611, !616, !621, !622, !623, !626, !627, !630, !631, !634, !637, !643, !649, !652, !653, !654, !657, !660, !661, !662, !666, !672, !675, !676, !679, !682, !685, !688, !691, !692, !693, !694, !695, !698, !702}
!570 = !DIDerivedType(tag: DW_TAG_inheritance, scope: !568, baseType: !49, flags: DIFlagProtected)
!571 = !DISubprogram(name: "vector", scope: !568, file: !48, line: 248, type: !572, isLocal: false, isDefinition: false, scopeLine: 248, flags: DIFlagPublic | DIFlagPrototyped, isOptimized: true)
!572 = !DISubroutineType(types: !573)
!573 = !{null, !574}
!574 = !DIDerivedType(tag: DW_TAG_pointer_type, baseType: !568, size: 64, flags: DIFlagArtificial | DIFlagObjectPointer)
!575 = !DISubprogram(name: "vector", scope: !568, file: !48, line: 256, type: !576, isLocal: false, isDefinition: false, scopeLine: 256, flags: DIFlagPublic | DIFlagExplicit | DIFlagPrototyped, isOptimized: true)
!576 = !DISubroutineType(types: !577)
!577 = !{null, !574, !578}
!578 = !DIDerivedType(tag: DW_TAG_reference_type, baseType: !579, size: 64)
!579 = !DIDerivedType(tag: DW_TAG_const_type, baseType: !580)
!580 = !DIDerivedType(tag: DW_TAG_typedef, name: "allocator_type", scope: !568, file: !48, line: 234, baseType: !66)
!581 = !DISubprogram(name: "vector", scope: !568, file: !48, line: 295, type: !582, isLocal: false, isDefinition: false, scopeLine: 295, flags: DIFlagPublic | DIFlagExplicit | DIFlagPrototyped, isOptimized: true)
!582 = !DISubroutineType(types: !583)
!583 = !{null, !574, !363, !584, !578}
!584 = !DIDerivedType(tag: DW_TAG_reference_type, baseType: !585, size: 64)
!585 = !DIDerivedType(tag: DW_TAG_const_type, baseType: !586)
!586 = !DIDerivedType(tag: DW_TAG_typedef, name: "value_type", scope: !568, file: !48, line: 222, baseType: !30)
!587 = !DISubprogram(name: "vector", scope: !568, file: !48, line: 310, type: !588, isLocal: false, isDefinition: false, scopeLine: 310, flags: DIFlagPublic | DIFlagPrototyped, isOptimized: true)
!588 = !DISubroutineType(types: !589)
!589 = !{null, !574, !590}
!590 = !DIDerivedType(tag: DW_TAG_reference_type, baseType: !591, size: 64)
!591 = !DIDerivedType(tag: DW_TAG_const_type, baseType: !568)
!592 = !DISubprogram(name: "~vector", scope: !568, file: !48, line: 414, type: !572, isLocal: false, isDefinition: false, scopeLine: 414, flags: DIFlagPublic | DIFlagPrototyped, isOptimized: true)
!593 = !DISubprogram(name: "operator=", linkageName: "_ZNSt6vectorI6recordSaIS0_EEaSERKS2_", scope: !568, file: !48, line: 427, type: !594, isLocal: false, isDefinition: false, scopeLine: 427, flags: DIFlagPublic | DIFlagPrototyped, isOptimized: true)
!594 = !DISubroutineType(types: !595)
!595 = !{!596, !574, !590}
!596 = !DIDerivedType(tag: DW_TAG_reference_type, baseType: !568, size: 64)
!597 = !DISubprogram(name: "assign", linkageName: "_ZNSt6vectorI6recordSaIS0_EE6assignEmRKS0_", scope: !568, file: !48, line: 479, type: !598, isLocal: false, isDefinition: false, scopeLine: 479, flags: DIFlagPublic | DIFlagPrototyped, isOptimized: true)
!598 = !DISubroutineType(types: !599)
!599 = !{null, !574, !363, !584}
!600 = !DISubprogram(name: "begin", linkageName: "_ZNSt6vectorI6recordSaIS0_EE5beginEv", scope: !568, file: !48, line: 538, type: !601, isLocal: false, isDefinition: false, scopeLine: 538, flags: DIFlagPublic | DIFlagPrototyped, isOptimized: true)
!601 = !DISubroutineType(types: !602)
!602 = !{!567, !574}
!603 = !DISubprogram(name: "begin", linkageName: "_ZNKSt6vectorI6recordSaIS0_EE5beginEv", scope: !568, file: !48, line: 547, type: !604, isLocal: false, isDefinition: false, scopeLine: 547, flags: DIFlagPublic | DIFlagPrototyped, isOptimized: true)
!604 = !DISubroutineType(types: !605)
!605 = !{!606, !608}
!606 = !DIDerivedType(tag: DW_TAG_typedef, name: "const_iterator", scope: !568, file: !48, line: 229, baseType: !607)
!607 = !DICompositeType(tag: DW_TAG_class_type, name: "__normal_iterator<const record *, std::vector<record, std::allocator<record> > >", scope: !60, file: !406, line: 708, flags: DIFlagFwdDecl, identifier: "_ZTSN9__gnu_cxx17__normal_iteratorIPK6recordSt6vectorIS1_SaIS1_EEEE")
!608 = !DIDerivedType(tag: DW_TAG_pointer_type, baseType: !591, size: 64, flags: DIFlagArtificial | DIFlagObjectPointer)
!609 = !DISubprogram(name: "end", linkageName: "_ZNSt6vectorI6recordSaIS0_EE3endEv", scope: !568, file: !48, line: 556, type: !601, isLocal: false, isDefinition: false, scopeLine: 556, flags: DIFlagPublic | DIFlagPrototyped, isOptimized: true)
!610 = !DISubprogram(name: "end", linkageName: "_ZNKSt6vectorI6recordSaIS0_EE3endEv", scope: !568, file: !48, line: 565, type: !604, isLocal: false, isDefinition: false, scopeLine: 565, flags: DIFlagPublic | DIFlagPrototyped, isOptimized: true)
!611 = !DISubprogram(name: "rbegin", linkageName: "_ZNSt6vectorI6recordSaIS0_EE6rbeginEv", scope: !568, file: !48, line: 574, type: !612, isLocal: false, isDefinition: false, scopeLine: 574, flags: DIFlagPublic | DIFlagPrototyped, isOptimized: true)
!612 = !DISubroutineType(types: !613)
!613 = !{!614, !574}
!614 = !DIDerivedType(tag: DW_TAG_typedef, name: "reverse_iterator", scope: !568, file: !48, line: 231, baseType: !615)
!615 = !DICompositeType(tag: DW_TAG_class_type, name: "reverse_iterator<__gnu_cxx::__normal_iterator<record *, std::vector<record, std::allocator<record> > > >", scope: !14, file: !406, line: 96, flags: DIFlagFwdDecl, identifier: "_ZTSSt16reverse_iteratorIN9__gnu_cxx17__normal_iteratorIP6recordSt6vectorIS2_SaIS2_EEEEE")
!616 = !DISubprogram(name: "rbegin", linkageName: "_ZNKSt6vectorI6recordSaIS0_EE6rbeginEv", scope: !568, file: !48, line: 583, type: !617, isLocal: false, isDefinition: false, scopeLine: 583, flags: DIFlagPublic | DIFlagPrototyped, isOptimized: true)
!617 = !DISubroutineType(types: !618)
!618 = !{!619, !608}
!619 = !DIDerivedType(tag: DW_TAG_typedef, name: "const_reverse_iterator", scope: !568, file: !48, line: 230, baseType: !620)
!620 = !DICompositeType(tag: DW_TAG_class_type, name: "reverse_iterator<__gnu_cxx::__normal_iterator<const record *, std::vector<record, std::allocator<record> > > >", scope: !14, file: !406, line: 96, flags: DIFlagFwdDecl, identifier: "_ZTSSt16reverse_iteratorIN9__gnu_cxx17__normal_iteratorIPK6recordSt6vectorIS2_SaIS2_EEEEE")
!621 = !DISubprogram(name: "rend", linkageName: "_ZNSt6vectorI6recordSaIS0_EE4rendEv", scope: !568, file: !48, line: 592, type: !612, isLocal: false, isDefinition: false, scopeLine: 592, flags: DIFlagPublic | DIFlagPrototyped, isOptimized: true)
!622 = !DISubprogram(name: "rend", linkageName: "_ZNKSt6vectorI6recordSaIS0_EE4rendEv", scope: !568, file: !48, line: 601, type: !617, isLocal: false, isDefinition: false, scopeLine: 601, flags: DIFlagPublic | DIFlagPrototyped, isOptimized: true)
!623 = !DISubprogram(name: "size", linkageName: "_ZNKSt6vectorI6recordSaIS0_EE4sizeEv", scope: !568, file: !48, line: 645, type: !624, isLocal: false, isDefinition: false, scopeLine: 645, flags: DIFlagPublic | DIFlagPrototyped, isOptimized: true)
!624 = !DISubroutineType(types: !625)
!625 = !{!363, !608}
!626 = !DISubprogram(name: "max_size", linkageName: "_ZNKSt6vectorI6recordSaIS0_EE8max_sizeEv", scope: !568, file: !48, line: 650, type: !624, isLocal: false, isDefinition: false, scopeLine: 650, flags: DIFlagPublic | DIFlagPrototyped, isOptimized: true)
!627 = !DISubprogram(name: "resize", linkageName: "_ZNSt6vectorI6recordSaIS0_EE6resizeEmS0_", scope: !568, file: !48, line: 704, type: !628, isLocal: false, isDefinition: false, scopeLine: 704, flags: DIFlagPublic | DIFlagPrototyped, isOptimized: true)
!628 = !DISubroutineType(types: !629)
!629 = !{null, !574, !363, !586}
!630 = !DISubprogram(name: "capacity", linkageName: "_ZNKSt6vectorI6recordSaIS0_EE8capacityEv", scope: !568, file: !48, line: 725, type: !624, isLocal: false, isDefinition: false, scopeLine: 725, flags: DIFlagPublic | DIFlagPrototyped, isOptimized: true)
!631 = !DISubprogram(name: "empty", linkageName: "_ZNKSt6vectorI6recordSaIS0_EE5emptyEv", scope: !568, file: !48, line: 734, type: !632, isLocal: false, isDefinition: false, scopeLine: 734, flags: DIFlagPublic | DIFlagPrototyped, isOptimized: true)
!632 = !DISubroutineType(types: !633)
!633 = !{!433, !608}
!634 = !DISubprogram(name: "reserve", linkageName: "_ZNSt6vectorI6recordSaIS0_EE7reserveEm", scope: !568, file: !48, line: 755, type: !635, isLocal: false, isDefinition: false, scopeLine: 755, flags: DIFlagPublic | DIFlagPrototyped, isOptimized: true)
!635 = !DISubroutineType(types: !636)
!636 = !{null, !574, !363}
!637 = !DISubprogram(name: "operator[]", linkageName: "_ZNSt6vectorI6recordSaIS0_EEixEm", scope: !568, file: !48, line: 770, type: !638, isLocal: false, isDefinition: false, scopeLine: 770, flags: DIFlagPublic | DIFlagPrototyped, isOptimized: true)
!638 = !DISubroutineType(types: !639)
!639 = !{!640, !574, !363}
!640 = !DIDerivedType(tag: DW_TAG_typedef, name: "reference", scope: !568, file: !48, line: 225, baseType: !641)
!641 = !DIDerivedType(tag: DW_TAG_typedef, name: "reference", scope: !59, file: !58, line: 202, baseType: !642)
!642 = !DIDerivedType(tag: DW_TAG_typedef, name: "reference", scope: !66, file: !67, line: 99, baseType: !90)
!643 = !DISubprogram(name: "operator[]", linkageName: "_ZNKSt6vectorI6recordSaIS0_EEixEm", scope: !568, file: !48, line: 785, type: !644, isLocal: false, isDefinition: false, scopeLine: 785, flags: DIFlagPublic | DIFlagPrototyped, isOptimized: true)
!644 = !DISubroutineType(types: !645)
!645 = !{!646, !608, !363}
!646 = !DIDerivedType(tag: DW_TAG_typedef, name: "const_reference", scope: !568, file: !48, line: 226, baseType: !647)
!647 = !DIDerivedType(tag: DW_TAG_typedef, name: "const_reference", scope: !59, file: !58, line: 203, baseType: !648)
!648 = !DIDerivedType(tag: DW_TAG_typedef, name: "const_reference", scope: !66, file: !67, line: 100, baseType: !98)
!649 = !DISubprogram(name: "_M_range_check", linkageName: "_ZNKSt6vectorI6recordSaIS0_EE14_M_range_checkEm", scope: !568, file: !48, line: 791, type: !650, isLocal: false, isDefinition: false, scopeLine: 791, flags: DIFlagProtected | DIFlagPrototyped, isOptimized: true)
!650 = !DISubroutineType(types: !651)
!651 = !{null, !608, !363}
!652 = !DISubprogram(name: "at", linkageName: "_ZNSt6vectorI6recordSaIS0_EE2atEm", scope: !568, file: !48, line: 810, type: !638, isLocal: false, isDefinition: false, scopeLine: 810, flags: DIFlagPublic | DIFlagPrototyped, isOptimized: true)
!653 = !DISubprogram(name: "at", linkageName: "_ZNKSt6vectorI6recordSaIS0_EE2atEm", scope: !568, file: !48, line: 828, type: !644, isLocal: false, isDefinition: false, scopeLine: 828, flags: DIFlagPublic | DIFlagPrototyped, isOptimized: true)
!654 = !DISubprogram(name: "front", linkageName: "_ZNSt6vectorI6recordSaIS0_EE5frontEv", scope: !568, file: !48, line: 839, type: !655, isLocal: false, isDefinition: false, scopeLine: 839, flags: DIFlagPublic | DIFlagPrototyped, isOptimized: true)
!655 = !DISubroutineType(types: !656)
!656 = !{!640, !574}
!657 = !DISubprogram(name: "front", linkageName: "_ZNKSt6vectorI6recordSaIS0_EE5frontEv", scope: !568, file: !48, line: 847, type: !658, isLocal: false, isDefinition: false, scopeLine: 847, flags: DIFlagPublic | DIFlagPrototyped, isOptimized: true)
!658 = !DISubroutineType(types: !659)
!659 = !{!646, !608}
!660 = !DISubprogram(name: "back", linkageName: "_ZNSt6vectorI6recordSaIS0_EE4backEv", scope: !568, file: !48, line: 855, type: !655, isLocal: false, isDefinition: false, scopeLine: 855, flags: DIFlagPublic | DIFlagPrototyped, isOptimized: true)
!661 = !DISubprogram(name: "back", linkageName: "_ZNKSt6vectorI6recordSaIS0_EE4backEv", scope: !568, file: !48, line: 863, type: !658, isLocal: false, isDefinition: false, scopeLine: 863, flags: DIFlagPublic | DIFlagPrototyped, isOptimized: true)
!662 = !DISubprogram(name: "data", linkageName: "_ZNSt6vectorI6recordSaIS0_EE4dataEv", scope: !568, file: !48, line: 878, type: !663, isLocal: false, isDefinition: false, scopeLine: 878, flags: DIFlagPublic | DIFlagPrototyped, isOptimized: true)
!663 = !DISubroutineType(types: !664)
!664 = !{!665, !574}
!665 = !DIDerivedType(tag: DW_TAG_typedef, name: "pointer", scope: !568, file: !48, line: 223, baseType: !56)
!666 = !DISubprogram(name: "data", linkageName: "_ZNKSt6vectorI6recordSaIS0_EE4dataEv", scope: !568, file: !48, line: 886, type: !667, isLocal: false, isDefinition: false, scopeLine: 886, flags: DIFlagPublic | DIFlagPrototyped, isOptimized: true)
!667 = !DISubroutineType(types: !668)
!668 = !{!669, !608}
!669 = !DIDerivedType(tag: DW_TAG_typedef, name: "const_pointer", scope: !568, file: !48, line: 224, baseType: !670)
!670 = !DIDerivedType(tag: DW_TAG_typedef, name: "const_pointer", scope: !59, file: !58, line: 200, baseType: !671)
!671 = !DIDerivedType(tag: DW_TAG_typedef, name: "const_pointer", scope: !66, file: !67, line: 98, baseType: !95)
!672 = !DISubprogram(name: "push_back", linkageName: "_ZNSt6vectorI6recordSaIS0_EE9push_backERKS0_", scope: !568, file: !48, line: 901, type: !673, isLocal: false, isDefinition: false, scopeLine: 901, flags: DIFlagPublic | DIFlagPrototyped, isOptimized: true)
!673 = !DISubroutineType(types: !674)
!674 = !{null, !574, !584}
!675 = !DISubprogram(name: "pop_back", linkageName: "_ZNSt6vectorI6recordSaIS0_EE8pop_backEv", scope: !568, file: !48, line: 937, type: !572, isLocal: false, isDefinition: false, scopeLine: 937, flags: DIFlagPublic | DIFlagPrototyped, isOptimized: true)
!676 = !DISubprogram(name: "insert", linkageName: "_ZNSt6vectorI6recordSaIS0_EE6insertEN9__gnu_cxx17__normal_iteratorIPS0_S2_EERKS0_", scope: !568, file: !48, line: 973, type: !677, isLocal: false, isDefinition: false, scopeLine: 973, flags: DIFlagPublic | DIFlagPrototyped, isOptimized: true)
!677 = !DISubroutineType(types: !678)
!678 = !{!567, !574, !567, !584}
!679 = !DISubprogram(name: "insert", linkageName: "_ZNSt6vectorI6recordSaIS0_EE6insertEN9__gnu_cxx17__normal_iteratorIPS0_S2_EEmRKS0_", scope: !568, file: !48, line: 1023, type: !680, isLocal: false, isDefinition: false, scopeLine: 1023, flags: DIFlagPublic | DIFlagPrototyped, isOptimized: true)
!680 = !DISubroutineType(types: !681)
!681 = !{null, !574, !567, !363, !584}
!682 = !DISubprogram(name: "erase", linkageName: "_ZNSt6vectorI6recordSaIS0_EE5eraseEN9__gnu_cxx17__normal_iteratorIPS0_S2_EE", scope: !568, file: !48, line: 1075, type: !683, isLocal: false, isDefinition: false, scopeLine: 1075, flags: DIFlagPublic | DIFlagPrototyped, isOptimized: true)
!683 = !DISubroutineType(types: !684)
!684 = !{!567, !574, !567}
!685 = !DISubprogram(name: "erase", linkageName: "_ZNSt6vectorI6recordSaIS0_EE5eraseEN9__gnu_cxx17__normal_iteratorIPS0_S2_EES6_", scope: !568, file: !48, line: 1096, type: !686, isLocal: false, isDefinition: false, scopeLine: 1096, flags: DIFlagPublic | DIFlagPrototyped, isOptimized: true)
!686 = !DISubroutineType(types: !687)
!687 = !{!567, !574, !567, !567}
!688 = !DISubprogram(name: "swap", linkageName: "_ZNSt6vectorI6recordSaIS0_EE4swapERS2_", scope: !568, file: !48, line: 1108, type: !689, isLocal: false, isDefinition: false, scopeLine: 1108, flags: DIFlagPublic | DIFlagPrototyped, isOptimized: true)
!689 = !DISubroutineType(types: !690)
!690 = !{null, !574, !596}
!691 = !DISubprogram(name: "clear", linkageName: "_ZNSt6vectorI6recordSaIS0_EE5clearEv", scope: !568, file: !48, line: 1125, type: !572, isLocal: false, isDefinition: false, scopeLine: 1125, flags: DIFlagPublic | DIFlagPrototyped, isOptimized: true)
!692 = !DISubprogram(name: "_M_fill_initialize", linkageName: "_ZNSt6vectorI6recordSaIS0_EE18_M_fill_initializeEmRKS0_", scope: !568, file: !48, line: 1212, type: !598, isLocal: false, isDefinition: false, scopeLine: 1212, flags: DIFlagProtected | DIFlagPrototyped, isOptimized: true)
!693 = !DISubprogram(name: "_M_fill_assign", linkageName: "_ZNSt6vectorI6recordSaIS0_EE14_M_fill_assignEmRKS0_", scope: !568, file: !48, line: 1268, type: !598, isLocal: false, isDefinition: false, scopeLine: 1268, flags: DIFlagProtected | DIFlagPrototyped, isOptimized: true)
!694 = !DISubprogram(name: "_M_fill_insert", linkageName: "_ZNSt6vectorI6recordSaIS0_EE14_M_fill_insertEN9__gnu_cxx17__normal_iteratorIPS0_S2_EEmRKS0_", scope: !568, file: !48, line: 1309, type: !680, isLocal: false, isDefinition: false, scopeLine: 1309, flags: DIFlagProtected | DIFlagPrototyped, isOptimized: true)
!695 = !DISubprogram(name: "_M_insert_aux", linkageName: "_ZNSt6vectorI6recordSaIS0_EE13_M_insert_auxEN9__gnu_cxx17__normal_iteratorIPS0_S2_EERKS0_", scope: !568, file: !48, line: 1323, type: !696, isLocal: false, isDefinition: false, scopeLine: 1323, flags: DIFlagProtected | DIFlagPrototyped, isOptimized: true)
!696 = !DISubroutineType(types: !697)
!697 = !{null, !574, !567, !584}
!698 = !DISubprogram(name: "_M_check_len", linkageName: "_ZNKSt6vectorI6recordSaIS0_EE12_M_check_lenEmPKc", scope: !568, file: !48, line: 1336, type: !699, isLocal: false, isDefinition: false, scopeLine: 1336, flags: DIFlagProtected | DIFlagPrototyped, isOptimized: true)
!699 = !DISubroutineType(types: !700)
!700 = !{!701, !608, !363, !502}
!701 = !DIDerivedType(tag: DW_TAG_typedef, name: "size_type", scope: !568, file: !48, line: 232, baseType: !103)
!702 = !DISubprogram(name: "_M_erase_at_end", linkageName: "_ZNSt6vectorI6recordSaIS0_EE15_M_erase_at_endEPS0_", scope: !568, file: !48, line: 1350, type: !703, isLocal: false, isDefinition: false, scopeLine: 1350, flags: DIFlagProtected | DIFlagPrototyped, isOptimized: true)
!703 = !DISubroutineType(types: !704)
!704 = !{null, !574, !665}
!705 = distinct !DICompositeType(tag: DW_TAG_class_type, name: "__normal_iterator<record *, std::vector<record, std::allocator<record> > >", scope: !60, file: !406, line: 708, size: 64, elements: !706, templateParams: !759, identifier: "_ZTSN9__gnu_cxx17__normal_iteratorIP6recordSt6vectorIS1_SaIS1_EEEE")
!706 = !{!707, !708, !712, !717, !727, !732, !736, !739, !740, !741, !748, !751, !754, !755, !756}
!707 = !DIDerivedType(tag: DW_TAG_member, name: "_M_current", scope: !705, file: !406, line: 711, baseType: !87, size: 64, flags: DIFlagProtected)
!708 = !DISubprogram(name: "__normal_iterator", scope: !705, file: !406, line: 723, type: !709, isLocal: false, isDefinition: false, scopeLine: 723, flags: DIFlagPublic | DIFlagPrototyped, isOptimized: true)
!709 = !DISubroutineType(types: !710)
!710 = !{null, !711}
!711 = !DIDerivedType(tag: DW_TAG_pointer_type, baseType: !705, size: 64, flags: DIFlagArtificial | DIFlagObjectPointer)
!712 = !DISubprogram(name: "__normal_iterator", scope: !705, file: !406, line: 726, type: !713, isLocal: false, isDefinition: false, scopeLine: 726, flags: DIFlagPublic | DIFlagExplicit | DIFlagPrototyped, isOptimized: true)
!713 = !DISubroutineType(types: !714)
!714 = !{null, !711, !715}
!715 = !DIDerivedType(tag: DW_TAG_reference_type, baseType: !716, size: 64)
!716 = !DIDerivedType(tag: DW_TAG_const_type, baseType: !87)
!717 = !DISubprogram(name: "operator*", linkageName: "_ZNK9__gnu_cxx17__normal_iteratorIP6recordSt6vectorIS1_SaIS1_EEEdeEv", scope: !705, file: !406, line: 738, type: !718, isLocal: false, isDefinition: false, scopeLine: 738, flags: DIFlagPublic | DIFlagPrototyped, isOptimized: true)
!718 = !DISubroutineType(types: !719)
!719 = !{!720, !725}
!720 = !DIDerivedType(tag: DW_TAG_typedef, name: "reference", scope: !705, file: !406, line: 720, baseType: !721)
!721 = !DIDerivedType(tag: DW_TAG_typedef, name: "reference", scope: !722, file: !524, line: 181, baseType: !90)
!722 = distinct !DICompositeType(tag: DW_TAG_structure_type, name: "iterator_traits<record *>", scope: !14, file: !524, line: 175, size: 8, elements: !16, templateParams: !723, identifier: "_ZTSSt15iterator_traitsIP6recordE")
!723 = !{!724}
!724 = !DITemplateTypeParameter(name: "_Iterator", type: !87)
!725 = !DIDerivedType(tag: DW_TAG_pointer_type, baseType: !726, size: 64, flags: DIFlagArtificial | DIFlagObjectPointer)
!726 = !DIDerivedType(tag: DW_TAG_const_type, baseType: !705)
!727 = !DISubprogram(name: "operator->", linkageName: "_ZNK9__gnu_cxx17__normal_iteratorIP6recordSt6vectorIS1_SaIS1_EEEptEv", scope: !705, file: !406, line: 742, type: !728, isLocal: false, isDefinition: false, scopeLine: 742, flags: DIFlagPublic | DIFlagPrototyped, isOptimized: true)
!728 = !DISubroutineType(types: !729)
!729 = !{!730, !725}
!730 = !DIDerivedType(tag: DW_TAG_typedef, name: "pointer", scope: !705, file: !406, line: 721, baseType: !731)
!731 = !DIDerivedType(tag: DW_TAG_typedef, name: "pointer", scope: !722, file: !524, line: 180, baseType: !87)
!732 = !DISubprogram(name: "operator++", linkageName: "_ZN9__gnu_cxx17__normal_iteratorIP6recordSt6vectorIS1_SaIS1_EEEppEv", scope: !705, file: !406, line: 746, type: !733, isLocal: false, isDefinition: false, scopeLine: 746, flags: DIFlagPublic | DIFlagPrototyped, isOptimized: true)
!733 = !DISubroutineType(types: !734)
!734 = !{!735, !711}
!735 = !DIDerivedType(tag: DW_TAG_reference_type, baseType: !705, size: 64)
!736 = !DISubprogram(name: "operator++", linkageName: "_ZN9__gnu_cxx17__normal_iteratorIP6recordSt6vectorIS1_SaIS1_EEEppEi", scope: !705, file: !406, line: 753, type: !737, isLocal: false, isDefinition: false, scopeLine: 753, flags: DIFlagPublic | DIFlagPrototyped, isOptimized: true)
!737 = !DISubroutineType(types: !738)
!738 = !{!705, !711, !45}
!739 = !DISubprogram(name: "operator--", linkageName: "_ZN9__gnu_cxx17__normal_iteratorIP6recordSt6vectorIS1_SaIS1_EEEmmEv", scope: !705, file: !406, line: 758, type: !733, isLocal: false, isDefinition: false, scopeLine: 758, flags: DIFlagPublic | DIFlagPrototyped, isOptimized: true)
!740 = !DISubprogram(name: "operator--", linkageName: "_ZN9__gnu_cxx17__normal_iteratorIP6recordSt6vectorIS1_SaIS1_EEEmmEi", scope: !705, file: !406, line: 765, type: !737, isLocal: false, isDefinition: false, scopeLine: 765, flags: DIFlagPublic | DIFlagPrototyped, isOptimized: true)
!741 = !DISubprogram(name: "operator[]", linkageName: "_ZNK9__gnu_cxx17__normal_iteratorIP6recordSt6vectorIS1_SaIS1_EEEixERKl", scope: !705, file: !406, line: 770, type: !742, isLocal: false, isDefinition: false, scopeLine: 770, flags: DIFlagPublic | DIFlagPrototyped, isOptimized: true)
!742 = !DISubroutineType(types: !743)
!743 = !{!720, !725, !744}
!744 = !DIDerivedType(tag: DW_TAG_reference_type, baseType: !745, size: 64)
!745 = !DIDerivedType(tag: DW_TAG_const_type, baseType: !746)
!746 = !DIDerivedType(tag: DW_TAG_typedef, name: "difference_type", scope: !705, file: !406, line: 719, baseType: !747)
!747 = !DIDerivedType(tag: DW_TAG_typedef, name: "difference_type", scope: !722, file: !524, line: 179, baseType: !551)
!748 = !DISubprogram(name: "operator+=", linkageName: "_ZN9__gnu_cxx17__normal_iteratorIP6recordSt6vectorIS1_SaIS1_EEEpLERKl", scope: !705, file: !406, line: 774, type: !749, isLocal: false, isDefinition: false, scopeLine: 774, flags: DIFlagPublic | DIFlagPrototyped, isOptimized: true)
!749 = !DISubroutineType(types: !750)
!750 = !{!735, !711, !744}
!751 = !DISubprogram(name: "operator+", linkageName: "_ZNK9__gnu_cxx17__normal_iteratorIP6recordSt6vectorIS1_SaIS1_EEEplERKl", scope: !705, file: !406, line: 778, type: !752, isLocal: false, isDefinition: false, scopeLine: 778, flags: DIFlagPublic | DIFlagPrototyped, isOptimized: true)
!752 = !DISubroutineType(types: !753)
!753 = !{!705, !725, !744}
!754 = !DISubprogram(name: "operator-=", linkageName: "_ZN9__gnu_cxx17__normal_iteratorIP6recordSt6vectorIS1_SaIS1_EEEmIERKl", scope: !705, file: !406, line: 782, type: !749, isLocal: false, isDefinition: false, scopeLine: 782, flags: DIFlagPublic | DIFlagPrototyped, isOptimized: true)
!755 = !DISubprogram(name: "operator-", linkageName: "_ZNK9__gnu_cxx17__normal_iteratorIP6recordSt6vectorIS1_SaIS1_EEEmiERKl", scope: !705, file: !406, line: 786, type: !752, isLocal: false, isDefinition: false, scopeLine: 786, flags: DIFlagPublic | DIFlagPrototyped, isOptimized: true)
!756 = !DISubprogram(name: "base", linkageName: "_ZNK9__gnu_cxx17__normal_iteratorIP6recordSt6vectorIS1_SaIS1_EEE4baseEv", scope: !705, file: !406, line: 790, type: !757, isLocal: false, isDefinition: false, scopeLine: 790, flags: DIFlagPublic | DIFlagPrototyped, isOptimized: true)
!757 = !DISubroutineType(types: !758)
!758 = !{!715, !725}
!759 = !{!724, !760}
!760 = !DITemplateTypeParameter(name: "_Container", type: !568)
!761 = !{!762, !767, !771, !773, !775, !777, !779, !783, !785, !787, !789, !791, !793, !795, !797, !799, !801, !803, !805, !807, !809, !811, !815, !817, !819, !821, !825, !830, !832, !834, !838, !842, !844, !846, !848, !850, !852, !854, !856, !858, !862, !866, !868, !870, !874, !876, !878, !880, !882, !884, !888, !890, !892, !896, !900, !904, !906, !908, !912, !914, !916, !920, !922, !924, !928, !930, !932, !934, !936, !938, !940, !942, !944, !946, !951, !953, !955, !959, !961, !963, !965, !967, !969, !971, !973, !977, !981, !983, !985, !990, !992, !994, !996, !998, !1000, !1002, !1006, !1012, !1016, !1020, !1025, !1030, !1036, !1040, !1051, !1055, !1059, !1063, !1067, !1071, !1073, !1077, !1081, !1085, !1093, !1097, !1101, !1105, !1109, !1114, !1119, !1123, !1127, !1129, !1137, !1141, !1147, !1149, !1151, !1155, !1159, !1163, !1168, !1172, !1177, !1178, !1179, !1180, !1183, !1184, !1185, !1186, !1187, !1188, !1189, !1192, !1194, !1196, !1198, !1200, !1202, !1204, !1206, !1209, !1211, !1213, !1215, !1217, !1219, !1221, !1223, !1225, !1227, !1229, !1231, !1233, !1235, !1237, !1239, !1241, !1243, !1245, !1247, !1249, !1251, !1253, !1255, !1257, !1259, !1261, !1263, !1265, !1267, !1269, !1271, !1273, !1277, !1278, !1280, !1282, !1284, !1286, !1288, !1290, !1292, !1294, !1296, !1298, !1300, !1302, !1304, !1306, !1310, !1311}
!762 = !DIImportedEntity(tag: DW_TAG_imported_declaration, scope: !14, entity: !763, line: 201)
!763 = !DISubprogram(name: "abs", linkageName: "_ZL3absx", scope: !15, file: !15, line: 44, type: !764, isLocal: true, isDefinition: false, flags: DIFlagPrototyped, isOptimized: true)
!764 = !DISubroutineType(types: !765)
!765 = !{!766, !766}
!766 = !DIBasicType(name: "long long int", size: 64, encoding: DW_ATE_signed)
!767 = !DIImportedEntity(tag: DW_TAG_imported_declaration, scope: !14, entity: !768, line: 202)
!768 = !DISubprogram(name: "acos", linkageName: "_ZL4acosf", scope: !15, file: !15, line: 46, type: !769, isLocal: true, isDefinition: false, flags: DIFlagPrototyped, isOptimized: true)
!769 = !DISubroutineType(types: !770)
!770 = !{!22, !22}
!771 = !DIImportedEntity(tag: DW_TAG_imported_declaration, scope: !14, entity: !772, line: 203)
!772 = !DISubprogram(name: "acosh", linkageName: "_ZL5acoshf", scope: !15, file: !15, line: 48, type: !769, isLocal: true, isDefinition: false, flags: DIFlagPrototyped, isOptimized: true)
!773 = !DIImportedEntity(tag: DW_TAG_imported_declaration, scope: !14, entity: !774, line: 204)
!774 = !DISubprogram(name: "asin", linkageName: "_ZL4asinf", scope: !15, file: !15, line: 50, type: !769, isLocal: true, isDefinition: false, flags: DIFlagPrototyped, isOptimized: true)
!775 = !DIImportedEntity(tag: DW_TAG_imported_declaration, scope: !14, entity: !776, line: 205)
!776 = !DISubprogram(name: "asinh", linkageName: "_ZL5asinhf", scope: !15, file: !15, line: 52, type: !769, isLocal: true, isDefinition: false, flags: DIFlagPrototyped, isOptimized: true)
!777 = !DIImportedEntity(tag: DW_TAG_imported_declaration, scope: !14, entity: !778, line: 206)
!778 = !DISubprogram(name: "atan", linkageName: "_ZL4atanf", scope: !15, file: !15, line: 56, type: !769, isLocal: true, isDefinition: false, flags: DIFlagPrototyped, isOptimized: true)
!779 = !DIImportedEntity(tag: DW_TAG_imported_declaration, scope: !14, entity: !780, line: 207)
!780 = !DISubprogram(name: "atan2", linkageName: "_ZL5atan2ff", scope: !15, file: !15, line: 54, type: !781, isLocal: true, isDefinition: false, flags: DIFlagPrototyped, isOptimized: true)
!781 = !DISubroutineType(types: !782)
!782 = !{!22, !22, !22}
!783 = !DIImportedEntity(tag: DW_TAG_imported_declaration, scope: !14, entity: !784, line: 208)
!784 = !DISubprogram(name: "atanh", linkageName: "_ZL5atanhf", scope: !15, file: !15, line: 58, type: !769, isLocal: true, isDefinition: false, flags: DIFlagPrototyped, isOptimized: true)
!785 = !DIImportedEntity(tag: DW_TAG_imported_declaration, scope: !14, entity: !786, line: 209)
!786 = !DISubprogram(name: "cbrt", linkageName: "_ZL4cbrtf", scope: !15, file: !15, line: 60, type: !769, isLocal: true, isDefinition: false, flags: DIFlagPrototyped, isOptimized: true)
!787 = !DIImportedEntity(tag: DW_TAG_imported_declaration, scope: !14, entity: !788, line: 210)
!788 = !DISubprogram(name: "ceil", linkageName: "_ZL4ceilf", scope: !15, file: !15, line: 62, type: !769, isLocal: true, isDefinition: false, flags: DIFlagPrototyped, isOptimized: true)
!789 = !DIImportedEntity(tag: DW_TAG_imported_declaration, scope: !14, entity: !790, line: 211)
!790 = !DISubprogram(name: "copysign", linkageName: "_ZL8copysignff", scope: !15, file: !15, line: 64, type: !781, isLocal: true, isDefinition: false, flags: DIFlagPrototyped, isOptimized: true)
!791 = !DIImportedEntity(tag: DW_TAG_imported_declaration, scope: !14, entity: !792, line: 212)
!792 = !DISubprogram(name: "cos", linkageName: "_ZL3cosf", scope: !15, file: !15, line: 66, type: !769, isLocal: true, isDefinition: false, flags: DIFlagPrototyped, isOptimized: true)
!793 = !DIImportedEntity(tag: DW_TAG_imported_declaration, scope: !14, entity: !794, line: 213)
!794 = !DISubprogram(name: "cosh", linkageName: "_ZL4coshf", scope: !15, file: !15, line: 68, type: !769, isLocal: true, isDefinition: false, flags: DIFlagPrototyped, isOptimized: true)
!795 = !DIImportedEntity(tag: DW_TAG_imported_declaration, scope: !14, entity: !796, line: 214)
!796 = !DISubprogram(name: "erf", linkageName: "_ZL3erff", scope: !15, file: !15, line: 72, type: !769, isLocal: true, isDefinition: false, flags: DIFlagPrototyped, isOptimized: true)
!797 = !DIImportedEntity(tag: DW_TAG_imported_declaration, scope: !14, entity: !798, line: 215)
!798 = !DISubprogram(name: "erfc", linkageName: "_ZL4erfcf", scope: !15, file: !15, line: 70, type: !769, isLocal: true, isDefinition: false, flags: DIFlagPrototyped, isOptimized: true)
!799 = !DIImportedEntity(tag: DW_TAG_imported_declaration, scope: !14, entity: !800, line: 216)
!800 = !DISubprogram(name: "exp", linkageName: "_ZL3expf", scope: !15, file: !15, line: 76, type: !769, isLocal: true, isDefinition: false, flags: DIFlagPrototyped, isOptimized: true)
!801 = !DIImportedEntity(tag: DW_TAG_imported_declaration, scope: !14, entity: !802, line: 217)
!802 = !DISubprogram(name: "exp2", linkageName: "_ZL4exp2f", scope: !15, file: !15, line: 74, type: !769, isLocal: true, isDefinition: false, flags: DIFlagPrototyped, isOptimized: true)
!803 = !DIImportedEntity(tag: DW_TAG_imported_declaration, scope: !14, entity: !804, line: 218)
!804 = !DISubprogram(name: "expm1", linkageName: "_ZL5expm1f", scope: !15, file: !15, line: 78, type: !769, isLocal: true, isDefinition: false, flags: DIFlagPrototyped, isOptimized: true)
!805 = !DIImportedEntity(tag: DW_TAG_imported_declaration, scope: !14, entity: !806, line: 219)
!806 = !DISubprogram(name: "fabs", linkageName: "_ZL4fabsf", scope: !15, file: !15, line: 80, type: !769, isLocal: true, isDefinition: false, flags: DIFlagPrototyped, isOptimized: true)
!807 = !DIImportedEntity(tag: DW_TAG_imported_declaration, scope: !14, entity: !808, line: 220)
!808 = !DISubprogram(name: "fdim", linkageName: "_ZL4fdimff", scope: !15, file: !15, line: 82, type: !781, isLocal: true, isDefinition: false, flags: DIFlagPrototyped, isOptimized: true)
!809 = !DIImportedEntity(tag: DW_TAG_imported_declaration, scope: !14, entity: !810, line: 221)
!810 = !DISubprogram(name: "floor", linkageName: "_ZL5floorf", scope: !15, file: !15, line: 84, type: !769, isLocal: true, isDefinition: false, flags: DIFlagPrototyped, isOptimized: true)
!811 = !DIImportedEntity(tag: DW_TAG_imported_declaration, scope: !14, entity: !812, line: 222)
!812 = !DISubprogram(name: "fma", linkageName: "_ZL3fmafff", scope: !15, file: !15, line: 86, type: !813, isLocal: true, isDefinition: false, flags: DIFlagPrototyped, isOptimized: true)
!813 = !DISubroutineType(types: !814)
!814 = !{!22, !22, !22, !22}
!815 = !DIImportedEntity(tag: DW_TAG_imported_declaration, scope: !14, entity: !816, line: 223)
!816 = !DISubprogram(name: "fmax", linkageName: "_ZL4fmaxff", scope: !15, file: !15, line: 88, type: !781, isLocal: true, isDefinition: false, flags: DIFlagPrototyped, isOptimized: true)
!817 = !DIImportedEntity(tag: DW_TAG_imported_declaration, scope: !14, entity: !818, line: 224)
!818 = !DISubprogram(name: "fmin", linkageName: "_ZL4fminff", scope: !15, file: !15, line: 90, type: !781, isLocal: true, isDefinition: false, flags: DIFlagPrototyped, isOptimized: true)
!819 = !DIImportedEntity(tag: DW_TAG_imported_declaration, scope: !14, entity: !820, line: 225)
!820 = !DISubprogram(name: "fmod", linkageName: "_ZL4fmodff", scope: !15, file: !15, line: 92, type: !781, isLocal: true, isDefinition: false, flags: DIFlagPrototyped, isOptimized: true)
!821 = !DIImportedEntity(tag: DW_TAG_imported_declaration, scope: !14, entity: !822, line: 226)
!822 = !DISubprogram(name: "fpclassify", linkageName: "_ZL10fpclassifyf", scope: !15, file: !15, line: 94, type: !823, isLocal: true, isDefinition: false, flags: DIFlagPrototyped, isOptimized: true)
!823 = !DISubroutineType(types: !824)
!824 = !{!45, !22}
!825 = !DIImportedEntity(tag: DW_TAG_imported_declaration, scope: !14, entity: !826, line: 227)
!826 = !DISubprogram(name: "frexp", linkageName: "_ZL5frexpfPi", scope: !15, file: !15, line: 96, type: !827, isLocal: true, isDefinition: false, flags: DIFlagPrototyped, isOptimized: true)
!827 = !DISubroutineType(types: !828)
!828 = !{!22, !22, !829}
!829 = !DIDerivedType(tag: DW_TAG_pointer_type, baseType: !45, size: 64)
!830 = !DIImportedEntity(tag: DW_TAG_imported_declaration, scope: !14, entity: !831, line: 228)
!831 = !DISubprogram(name: "hypot", linkageName: "_ZL5hypotff", scope: !15, file: !15, line: 98, type: !781, isLocal: true, isDefinition: false, flags: DIFlagPrototyped, isOptimized: true)
!832 = !DIImportedEntity(tag: DW_TAG_imported_declaration, scope: !14, entity: !833, line: 229)
!833 = !DISubprogram(name: "ilogb", linkageName: "_ZL5ilogbf", scope: !15, file: !15, line: 100, type: !823, isLocal: true, isDefinition: false, flags: DIFlagPrototyped, isOptimized: true)
!834 = !DIImportedEntity(tag: DW_TAG_imported_declaration, scope: !14, entity: !835, line: 230)
!835 = !DISubprogram(name: "isfinite", linkageName: "_ZL8isfinitef", scope: !15, file: !15, line: 102, type: !836, isLocal: true, isDefinition: false, flags: DIFlagPrototyped, isOptimized: true)
!836 = !DISubroutineType(types: !837)
!837 = !{!433, !22}
!838 = !DIImportedEntity(tag: DW_TAG_imported_declaration, scope: !14, entity: !839, line: 231)
!839 = !DISubprogram(name: "isgreater", linkageName: "_ZL9isgreaterff", scope: !15, file: !15, line: 106, type: !840, isLocal: true, isDefinition: false, flags: DIFlagPrototyped, isOptimized: true)
!840 = !DISubroutineType(types: !841)
!841 = !{!433, !22, !22}
!842 = !DIImportedEntity(tag: DW_TAG_imported_declaration, scope: !14, entity: !843, line: 232)
!843 = !DISubprogram(name: "isgreaterequal", linkageName: "_ZL14isgreaterequalff", scope: !15, file: !15, line: 105, type: !840, isLocal: true, isDefinition: false, flags: DIFlagPrototyped, isOptimized: true)
!844 = !DIImportedEntity(tag: DW_TAG_imported_declaration, scope: !14, entity: !845, line: 233)
!845 = !DISubprogram(name: "isinf", linkageName: "_ZL5isinff", scope: !15, file: !15, line: 108, type: !836, isLocal: true, isDefinition: false, flags: DIFlagPrototyped, isOptimized: true)
!846 = !DIImportedEntity(tag: DW_TAG_imported_declaration, scope: !14, entity: !847, line: 234)
!847 = !DISubprogram(name: "isless", linkageName: "_ZL6islessff", scope: !15, file: !15, line: 112, type: !840, isLocal: true, isDefinition: false, flags: DIFlagPrototyped, isOptimized: true)
!848 = !DIImportedEntity(tag: DW_TAG_imported_declaration, scope: !14, entity: !849, line: 235)
!849 = !DISubprogram(name: "islessequal", linkageName: "_ZL11islessequalff", scope: !15, file: !15, line: 111, type: !840, isLocal: true, isDefinition: false, flags: DIFlagPrototyped, isOptimized: true)
!850 = !DIImportedEntity(tag: DW_TAG_imported_declaration, scope: !14, entity: !851, line: 236)
!851 = !DISubprogram(name: "islessgreater", linkageName: "_ZL13islessgreaterff", scope: !15, file: !15, line: 114, type: !840, isLocal: true, isDefinition: false, flags: DIFlagPrototyped, isOptimized: true)
!852 = !DIImportedEntity(tag: DW_TAG_imported_declaration, scope: !14, entity: !853, line: 237)
!853 = !DISubprogram(name: "isnan", linkageName: "_ZL5isnanf", scope: !15, file: !15, line: 116, type: !836, isLocal: true, isDefinition: false, flags: DIFlagPrototyped, isOptimized: true)
!854 = !DIImportedEntity(tag: DW_TAG_imported_declaration, scope: !14, entity: !855, line: 238)
!855 = !DISubprogram(name: "isnormal", linkageName: "_ZL8isnormalf", scope: !15, file: !15, line: 118, type: !836, isLocal: true, isDefinition: false, flags: DIFlagPrototyped, isOptimized: true)
!856 = !DIImportedEntity(tag: DW_TAG_imported_declaration, scope: !14, entity: !857, line: 239)
!857 = !DISubprogram(name: "isunordered", linkageName: "_ZL11isunorderedff", scope: !15, file: !15, line: 120, type: !840, isLocal: true, isDefinition: false, flags: DIFlagPrototyped, isOptimized: true)
!858 = !DIImportedEntity(tag: DW_TAG_imported_declaration, scope: !14, entity: !859, line: 240)
!859 = !DISubprogram(name: "labs", linkageName: "_ZL4labsl", scope: !15, file: !15, line: 121, type: !860, isLocal: true, isDefinition: false, flags: DIFlagPrototyped, isOptimized: true)
!860 = !DISubroutineType(types: !861)
!861 = !{!552, !552}
!862 = !DIImportedEntity(tag: DW_TAG_imported_declaration, scope: !14, entity: !863, line: 241)
!863 = !DISubprogram(name: "ldexp", linkageName: "_ZL5ldexpfi", scope: !15, file: !15, line: 123, type: !864, isLocal: true, isDefinition: false, flags: DIFlagPrototyped, isOptimized: true)
!864 = !DISubroutineType(types: !865)
!865 = !{!22, !22, !45}
!866 = !DIImportedEntity(tag: DW_TAG_imported_declaration, scope: !14, entity: !867, line: 242)
!867 = !DISubprogram(name: "lgamma", linkageName: "_ZL6lgammaf", scope: !15, file: !15, line: 125, type: !769, isLocal: true, isDefinition: false, flags: DIFlagPrototyped, isOptimized: true)
!868 = !DIImportedEntity(tag: DW_TAG_imported_declaration, scope: !14, entity: !869, line: 243)
!869 = !DISubprogram(name: "llabs", linkageName: "_ZL5llabsx", scope: !15, file: !15, line: 126, type: !764, isLocal: true, isDefinition: false, flags: DIFlagPrototyped, isOptimized: true)
!870 = !DIImportedEntity(tag: DW_TAG_imported_declaration, scope: !14, entity: !871, line: 244)
!871 = !DISubprogram(name: "llrint", linkageName: "_ZL6llrintf", scope: !15, file: !15, line: 128, type: !872, isLocal: true, isDefinition: false, flags: DIFlagPrototyped, isOptimized: true)
!872 = !DISubroutineType(types: !873)
!873 = !{!766, !22}
!874 = !DIImportedEntity(tag: DW_TAG_imported_declaration, scope: !14, entity: !875, line: 245)
!875 = !DISubprogram(name: "log", linkageName: "_ZL3logf", scope: !15, file: !15, line: 138, type: !769, isLocal: true, isDefinition: false, flags: DIFlagPrototyped, isOptimized: true)
!876 = !DIImportedEntity(tag: DW_TAG_imported_declaration, scope: !14, entity: !877, line: 246)
!877 = !DISubprogram(name: "log10", linkageName: "_ZL5log10f", scope: !15, file: !15, line: 130, type: !769, isLocal: true, isDefinition: false, flags: DIFlagPrototyped, isOptimized: true)
!878 = !DIImportedEntity(tag: DW_TAG_imported_declaration, scope: !14, entity: !879, line: 247)
!879 = !DISubprogram(name: "log1p", linkageName: "_ZL5log1pf", scope: !15, file: !15, line: 132, type: !769, isLocal: true, isDefinition: false, flags: DIFlagPrototyped, isOptimized: true)
!880 = !DIImportedEntity(tag: DW_TAG_imported_declaration, scope: !14, entity: !881, line: 248)
!881 = !DISubprogram(name: "log2", linkageName: "_ZL4log2f", scope: !15, file: !15, line: 134, type: !769, isLocal: true, isDefinition: false, flags: DIFlagPrototyped, isOptimized: true)
!882 = !DIImportedEntity(tag: DW_TAG_imported_declaration, scope: !14, entity: !883, line: 249)
!883 = !DISubprogram(name: "logb", linkageName: "_ZL4logbf", scope: !15, file: !15, line: 136, type: !769, isLocal: true, isDefinition: false, flags: DIFlagPrototyped, isOptimized: true)
!884 = !DIImportedEntity(tag: DW_TAG_imported_declaration, scope: !14, entity: !885, line: 250)
!885 = !DISubprogram(name: "lrint", linkageName: "_ZL5lrintf", scope: !15, file: !15, line: 140, type: !886, isLocal: true, isDefinition: false, flags: DIFlagPrototyped, isOptimized: true)
!886 = !DISubroutineType(types: !887)
!887 = !{!552, !22}
!888 = !DIImportedEntity(tag: DW_TAG_imported_declaration, scope: !14, entity: !889, line: 251)
!889 = !DISubprogram(name: "lround", linkageName: "_ZL6lroundf", scope: !15, file: !15, line: 142, type: !886, isLocal: true, isDefinition: false, flags: DIFlagPrototyped, isOptimized: true)
!890 = !DIImportedEntity(tag: DW_TAG_imported_declaration, scope: !14, entity: !891, line: 252)
!891 = !DISubprogram(name: "llround", linkageName: "_ZL7llroundf", scope: !15, file: !15, line: 143, type: !872, isLocal: true, isDefinition: false, flags: DIFlagPrototyped, isOptimized: true)
!892 = !DIImportedEntity(tag: DW_TAG_imported_declaration, scope: !14, entity: !893, line: 253)
!893 = !DISubprogram(name: "modf", linkageName: "_ZL4modffPf", scope: !15, file: !15, line: 145, type: !894, isLocal: true, isDefinition: false, flags: DIFlagPrototyped, isOptimized: true)
!894 = !DISubroutineType(types: !895)
!895 = !{!22, !22, !40}
!896 = !DIImportedEntity(tag: DW_TAG_imported_declaration, scope: !14, entity: !897, line: 254)
!897 = !DISubprogram(name: "nan", linkageName: "_ZL3nanPKc", scope: !15, file: !15, line: 146, type: !898, isLocal: true, isDefinition: false, flags: DIFlagPrototyped, isOptimized: true)
!898 = !DISubroutineType(types: !899)
!899 = !{!39, !502}
!900 = !DIImportedEntity(tag: DW_TAG_imported_declaration, scope: !14, entity: !901, line: 255)
!901 = !DISubprogram(name: "nanf", linkageName: "_ZL4nanfPKc", scope: !15, file: !15, line: 147, type: !902, isLocal: true, isDefinition: false, flags: DIFlagPrototyped, isOptimized: true)
!902 = !DISubroutineType(types: !903)
!903 = !{!22, !502}
!904 = !DIImportedEntity(tag: DW_TAG_imported_declaration, scope: !14, entity: !905, line: 256)
!905 = !DISubprogram(name: "nearbyint", linkageName: "_ZL9nearbyintf", scope: !15, file: !15, line: 149, type: !769, isLocal: true, isDefinition: false, flags: DIFlagPrototyped, isOptimized: true)
